	.file	"bilateral_filter.cpp"
	.text
.Ltext0:
	.section	.text.unlikely._Z12gaussianBlurIN2cv3VecIhLi3EEENS1_IfLi3EEELi3EEvRKNS0_3MatERS4_NS0_5Size_IiEEdd._omp_fn.0,"axG",@progbits,_Z12gaussianBlurIN2cv3VecIhLi3EEENS1_IfLi3EEELi3EEvRKNS0_3MatERS4_NS0_5Size_IiEEdd,comdat
.LCOLDB0:
	.section	.text._Z12gaussianBlurIN2cv3VecIhLi3EEENS1_IfLi3EEELi3EEvRKNS0_3MatERS4_NS0_5Size_IiEEdd._omp_fn.0,"axG",@progbits,_Z12gaussianBlurIN2cv3VecIhLi3EEENS1_IfLi3EEELi3EEvRKNS0_3MatERS4_NS0_5Size_IiEEdd,comdat
.LHOTB0:
	.p2align 4,,15
	.section	.text.unlikely._Z12gaussianBlurIN2cv3VecIhLi3EEENS1_IfLi3EEELi3EEvRKNS0_3MatERS4_NS0_5Size_IiEEdd._omp_fn.0,"axG",@progbits,_Z12gaussianBlurIN2cv3VecIhLi3EEENS1_IfLi3EEELi3EEvRKNS0_3MatERS4_NS0_5Size_IiEEdd,comdat
.Ltext_cold0:
	.section	.text._Z12gaussianBlurIN2cv3VecIhLi3EEENS1_IfLi3EEELi3EEvRKNS0_3MatERS4_NS0_5Size_IiEEdd._omp_fn.0,"axG",@progbits,_Z12gaussianBlurIN2cv3VecIhLi3EEENS1_IfLi3EEELi3EEvRKNS0_3MatERS4_NS0_5Size_IiEEdd,comdat
	.type	_Z12gaussianBlurIN2cv3VecIhLi3EEENS1_IfLi3EEELi3EEvRKNS0_3MatERS4_NS0_5Size_IiEEdd._omp_fn.0, @function
_Z12gaussianBlurIN2cv3VecIhLi3EEENS1_IfLi3EEELi3EEvRKNS0_3MatERS4_NS0_5Size_IiEEdd._omp_fn.0:
.LFB12399:
	.file 1 "bilateral_filter.cpp"
	.loc 1 120 0
	.cfi_startproc
	.cfi_personality 0x3,__gxx_personality_v0
.LVL0:
	pushq	%r15
	.cfi_def_cfa_offset 16
	.cfi_offset 15, -16
	pushq	%r14
	.cfi_def_cfa_offset 24
	.cfi_offset 14, -24
	pushq	%r13
	.cfi_def_cfa_offset 32
	.cfi_offset 13, -32
	pushq	%r12
	.cfi_def_cfa_offset 40
	.cfi_offset 12, -40
	pushq	%rbp
	.cfi_def_cfa_offset 48
	.cfi_offset 6, -48
	pushq	%rbx
	.cfi_def_cfa_offset 56
	.cfi_offset 3, -56
	movq	%rdi, %rbx
	subq	$72, %rsp
	.cfi_def_cfa_offset 128
.LBB5697:
	.loc 1 125 0
	movl	80(%rdi), %r14d
.LBE5697:
	.loc 1 120 0
	movq	40(%rdi), %r12
.LVL1:
	movq	%fs:40, %rax
	movq	%rax, 56(%rsp)
	xorl	%eax, %eax
	movq	32(%rdi), %rbp
.LVL2:
.LBB5828:
	.loc 1 125 0
	leal	3(%r14), %ecx
	testl	%r14d, %r14d
	cmovns	%r14d, %ecx
	sarl	$2, %ecx
	movl	%ecx, 8(%rsp)
	call	omp_get_num_threads
.LVL3:
	movl	%eax, %r15d
	movl	%eax, 20(%rsp)
	call	omp_get_thread_num
.LVL4:
	movl	8(%rsp), %ecx
	movl	%eax, %r10d
	movl	%eax, 16(%rsp)
	imull	%ecx, %r10d
	leal	(%rcx,%r10), %r13d
	cmpl	%r14d, %r13d
	cmovg	%r14d, %r13d
	cmpl	%r10d, %r14d
	jle	.L2
	movl	%r15d, %edi
	movl	%eax, %r11d
	movl	96(%rbx), %edx
	imull	%ecx, %edi
	movl	84(%rbx), %eax
	movl	%edi, 24(%rsp)
	movl	%r15d, %edi
	addl	%r11d, %edi
	movl	%edi, %esi
	movl	%edi, %r15d
	addl	$1, %esi
	imull	%ecx, %r15d
	imull	%esi, %ecx
	subl	%r15d, %ecx
	movl	%ecx, 28(%rsp)
.L5:
	movslq	%r10d, %r11
.L4:
.LVL5:
.LBB5698:
.LBB5699:
	.loc 1 128 0
	movq	48(%rbx), %rdi
.LVL6:
	movq	%r11, %rsi
.LBB5700:
.LBB5701:
	.file 2 "/home/xiaocen/Software/opencv/include/opencv2/core/mat.hpp"
	.loc 2 430 0
	movl	76(%rbx), %r8d
.LBE5701:
.LBE5700:
.LBB5704:
	.loc 1 133 0
	xorl	%r9d, %r9d
.LBE5704:
.LBB5823:
.LBB5824:
	.loc 2 430 0
	movq	72(%rdi), %rcx
.LBE5824:
.LBE5823:
.LBB5825:
.LBB5702:
	addl	%r10d, %r8d
	movslq	%r8d, %r8
.LBE5702:
.LBE5825:
	.loc 1 128 0
	imulq	(%rcx), %rsi
	movslq	72(%rbx), %rcx
	leaq	(%rcx,%rcx,2), %rcx
	addq	%rcx, %rsi
	addq	16(%rdi), %rsi
.LVL7:
	.loc 1 129 0
	movq	56(%rbx), %rdi
.LVL8:
.LBB5826:
.LBB5703:
	.loc 2 430 0
	movq	72(%rdi), %rcx
	imulq	(%rcx), %r8
.LVL9:
.LBE5703:
.LBE5826:
.LBB5827:
	.loc 1 133 0
	movl	%edx, %ecx
	imull	%eax, %ecx
	addq	16(%rdi), %r8
.LVL10:
	testl	%ecx, %ecx
	jle	.L7
.LVL11:
	.p2align 4,,10
	.p2align 3
.L44:
.LBB5705:
.LBB5706:
.LBB5707:
	.file 3 "/usr/lib/gcc/x86_64-linux-gnu/5/include/emmintrin.h"
	.loc 3 698 0
	movdqu	(%rsi), %xmm0
.LBE5707:
.LBE5706:
.LBB5708:
.LBB5709:
.LBB5710:
.LBB5711:
	.file 4 "/usr/lib/gcc/x86_64-linux-gnu/5/include/xmmintrin.h"
	.loc 4 884 0
	movss	(%r12), %xmm6
.LVL12:
	leaq	4(%r12), %rcx
.LBE5711:
.LBE5710:
.LBE5709:
.LBE5708:
.LBB5712:
	.loc 1 149 0
	movq	16(%rbx), %rdi
	movl	$1, %edx
.LBE5712:
	.loc 1 138 0
	movdqa	(%rbx), %xmm5
.LBB5776:
.LBB5777:
	.loc 3 965 0
	movdqa	%xmm0, %xmm7
.LBE5777:
.LBE5776:
.LBB5779:
.LBB5780:
	.loc 4 743 0
	shufps	$0, %xmm6, %xmm6
.LVL13:
.LBE5780:
.LBE5779:
.LBB5781:
.LBB5778:
	.loc 3 965 0
	punpckhbw	%xmm5, %xmm7
.LVL14:
.LBE5778:
.LBE5781:
.LBB5782:
	.loc 1 149 0
	cmpl	$1, (%rdi)
.LBE5782:
.LBB5783:
.LBB5784:
	.loc 3 989 0
	punpcklbw	%xmm5, %xmm0
.LVL15:
.LBE5784:
.LBE5783:
.LBB5785:
.LBB5786:
	.loc 3 995 0
	movdqa	%xmm7, %xmm8
.LBE5786:
.LBE5785:
.LBB5788:
.LBB5789:
	.loc 3 971 0
	movdqa	%xmm0, %xmm9
.LBE5789:
.LBE5788:
.LBB5791:
.LBB5792:
	punpckhwd	%xmm5, %xmm7
.LVL16:
.LBE5792:
.LBE5791:
.LBB5793:
.LBB5794:
	.loc 3 995 0
	punpcklwd	%xmm5, %xmm0
.LVL17:
.LBE5794:
.LBE5793:
.LBB5795:
.LBB5790:
	.loc 3 971 0
	punpckhwd	%xmm5, %xmm9
.LVL18:
.LBE5790:
.LBE5795:
.LBB5796:
.LBB5787:
	.loc 3 995 0
	punpcklwd	%xmm5, %xmm8
.LVL19:
.LBE5787:
.LBE5796:
.LBB5797:
.LBB5798:
	.loc 3 767 0
	cvtdq2ps	%xmm7, %xmm7
.LVL20:
.LBE5798:
.LBE5797:
.LBB5799:
.LBB5800:
	cvtdq2ps	%xmm0, %xmm0
.LVL21:
.LBE5800:
.LBE5799:
.LBB5801:
.LBB5802:
	.loc 4 195 0
	mulps	%xmm6, %xmm7
.LVL22:
.LBE5802:
.LBE5801:
.LBB5803:
.LBB5804:
	.loc 3 767 0
	cvtdq2ps	%xmm9, %xmm9
.LVL23:
.LBE5804:
.LBE5803:
.LBB5805:
.LBB5806:
	cvtdq2ps	%xmm8, %xmm8
.LVL24:
.LBE5806:
.LBE5805:
.LBB5807:
.LBB5808:
	.loc 4 195 0
	mulps	%xmm6, %xmm9
.LBE5808:
.LBE5807:
.LBB5809:
.LBB5810:
	mulps	%xmm6, %xmm8
.LVL25:
.LBE5810:
.LBE5809:
.LBB5811:
.LBB5812:
	mulps	%xmm0, %xmm6
.LVL26:
.LBE5812:
.LBE5811:
.LBB5813:
	.loc 1 149 0
	jle	.L9
	movq	%r8, 8(%rsp)
.LVL27:
	.p2align 4,,10
	.p2align 3
.L45:
.LBB5713:
	.loc 1 152 0 discriminator 2
	movl	96(%rbx), %eax
.LBB5714:
.LBB5715:
	.loc 3 698 0 discriminator 2
	movq	%rsi, %r8
.LBE5715:
.LBE5714:
.LBB5718:
.LBB5719:
.LBB5720:
.LBB5721:
	.loc 4 884 0 discriminator 2
	movss	(%rcx), %xmm0
.LVL28:
	addq	$4, %rcx
.LBE5721:
.LBE5720:
.LBE5719:
.LBE5718:
.LBB5722:
.LBB5723:
	.loc 4 743 0 discriminator 2
	shufps	$0, %xmm0, %xmm0
.LVL29:
.LBE5723:
.LBE5722:
	.loc 1 152 0 discriminator 2
	imull	%edx, %eax
.LBE5713:
	.loc 1 149 0 discriminator 2
	addl	$1, %edx
.LVL30:
.LBB5774:
	.loc 1 152 0 discriminator 2
	cltq
.LVL31:
.LBB5724:
.LBB5716:
	.loc 3 698 0 discriminator 2
	subq	%rax, %r8
.LVL32:
.LBE5716:
.LBE5724:
.LBB5725:
.LBB5726:
	movdqu	(%rsi,%rax), %xmm3
.LVL33:
.LBE5726:
.LBE5725:
.LBE5774:
	.loc 1 149 0 discriminator 2
	cmpl	%edx, (%rdi)
.LBB5775:
.LBB5727:
.LBB5717:
	.loc 3 698 0 discriminator 2
	movdqu	(%r8), %xmm4
.LVL34:
.LBE5717:
.LBE5727:
.LBB5728:
.LBB5729:
	.loc 3 965 0 discriminator 2
	movdqa	%xmm3, %xmm1
.LBE5729:
.LBE5728:
.LBB5731:
.LBB5732:
	.loc 3 989 0 discriminator 2
	punpcklbw	%xmm5, %xmm3
.LVL35:
.LBE5732:
.LBE5731:
.LBB5733:
.LBB5734:
	.loc 3 965 0 discriminator 2
	movdqa	%xmm4, %xmm2
.LBE5734:
.LBE5733:
.LBB5736:
.LBB5730:
	punpckhbw	%xmm5, %xmm1
.LVL36:
.LBE5730:
.LBE5736:
.LBB5737:
.LBB5738:
	.loc 3 989 0 discriminator 2
	punpcklbw	%xmm5, %xmm4
.LVL37:
.LBE5738:
.LBE5737:
.LBB5739:
.LBB5735:
	.loc 3 965 0 discriminator 2
	punpckhbw	%xmm5, %xmm2
.LVL38:
.LBE5735:
.LBE5739:
.LBB5740:
.LBB5741:
	.loc 3 971 0 discriminator 2
	paddw	%xmm4, %xmm3
	movdqa	%xmm3, %xmm4
.LVL39:
.LBE5741:
.LBE5740:
.LBB5743:
.LBB5744:
	.loc 3 995 0 discriminator 2
	paddw	%xmm2, %xmm1
	movdqa	%xmm1, %xmm2
.LVL40:
.LBE5744:
.LBE5743:
.LBB5746:
.LBB5747:
	.loc 3 971 0 discriminator 2
	punpckhwd	%xmm5, %xmm1
.LBE5747:
.LBE5746:
.LBB5748:
.LBB5742:
	punpckhwd	%xmm5, %xmm4
.LVL41:
.LBE5742:
.LBE5748:
.LBB5749:
.LBB5745:
	.loc 3 995 0 discriminator 2
	punpcklwd	%xmm5, %xmm2
.LBE5745:
.LBE5749:
.LBB5750:
.LBB5751:
	.loc 3 767 0 discriminator 2
	cvtdq2ps	%xmm1, %xmm1
.LBE5751:
.LBE5750:
.LBB5752:
.LBB5753:
	.loc 4 183 0 discriminator 2
	mulps	%xmm0, %xmm1
.LBE5753:
.LBE5752:
.LBB5755:
.LBB5756:
	.loc 3 995 0 discriminator 2
	punpcklwd	%xmm5, %xmm3
.LVL42:
.LBE5756:
.LBE5755:
.LBB5757:
.LBB5754:
	.loc 4 183 0 discriminator 2
	addps	%xmm1, %xmm7
.LVL43:
.LBE5754:
.LBE5757:
.LBB5758:
.LBB5759:
	.loc 3 767 0 discriminator 2
	cvtdq2ps	%xmm2, %xmm1
.LVL44:
.LBE5759:
.LBE5758:
.LBB5760:
.LBB5761:
	cvtdq2ps	%xmm3, %xmm3
.LVL45:
.LBE5761:
.LBE5760:
.LBB5762:
.LBB5763:
	.loc 4 183 0 discriminator 2
	mulps	%xmm0, %xmm1
	addps	%xmm1, %xmm8
.LVL46:
.LBE5763:
.LBE5762:
.LBB5764:
.LBB5765:
	.loc 3 767 0 discriminator 2
	cvtdq2ps	%xmm4, %xmm1
.LVL47:
.LBE5765:
.LBE5764:
.LBB5766:
.LBB5767:
	.loc 4 183 0 discriminator 2
	mulps	%xmm0, %xmm1
.LBE5767:
.LBE5766:
.LBB5769:
.LBB5770:
	mulps	%xmm3, %xmm0
.LVL48:
.LBE5770:
.LBE5769:
.LBB5772:
.LBB5768:
	addps	%xmm1, %xmm9
.LVL49:
.LBE5768:
.LBE5772:
.LBB5773:
.LBB5771:
	addps	%xmm0, %xmm6
.LVL50:
.LBE5771:
.LBE5773:
.LBE5775:
	.loc 1 149 0 discriminator 2
	jg	.L45
	movq	8(%rsp), %r8
.LVL51:
.L9:
.LBE5813:
.LBB5814:
.LBB5815:
	.loc 4 980 0
	movups	%xmm6, (%r8)
.LVL52:
.LBE5815:
.LBE5814:
.LBE5705:
	.loc 1 133 0
	addl	$16, %r9d
.LVL53:
	addq	$16, %rsi
.LVL54:
	addq	$64, %r8
.LVL55:
.LBB5822:
.LBB5816:
.LBB5817:
	.loc 4 980 0
	movups	%xmm9, -48(%r8)
.LVL56:
.LBE5817:
.LBE5816:
.LBB5818:
.LBB5819:
	movups	%xmm8, -32(%r8)
.LVL57:
.LBE5819:
.LBE5818:
.LBB5820:
.LBB5821:
	movups	%xmm7, -16(%r8)
.LVL58:
.LBE5821:
.LBE5820:
.LBE5822:
	.loc 1 133 0
	movl	96(%rbx), %edx
	movl	84(%rbx), %eax
	movl	%edx, %ecx
	imull	%eax, %ecx
	cmpl	%r9d, %ecx
	jg	.L44
.LVL59:
.L7:
	addl	$1, %r10d
.LVL60:
	addq	$1, %r11
	cmpl	%r13d, %r10d
	jl	.L4
	movl	28(%rsp), %edi
	movl	%r15d, %r10d
.LVL61:
	leal	(%r15,%rdi), %r13d
	movl	24(%rsp), %edi
	cmpl	%r14d, %r13d
	cmovg	%r14d, %r13d
	addl	%edi, %r15d
	movl	%r15d, %ecx
	subl	%edi, %ecx
	cmpl	%ecx, %r14d
	jg	.L5
.LVL62:
.L2:
	call	GOMP_barrier
.LVL63:
.LBE5827:
.LBE5699:
.LBE5698:
.LBE5828:
.LBB5829:
	.loc 1 179 0
	movl	16(%rsp), %eax
	testl	%eax, %eax
	jne	.L30
.LBB5830:
	.loc 1 180 0
	movq	56(%rbx), %rdx
	.loc 1 181 0
	movslq	76(%rbx), %r14
	movl	92(%rbx), %eax
	movq	16(%rdx), %r15
.LVL64:
.LBB5831:
.LBB5832:
	.loc 2 430 0
	movq	72(%rdx), %rdx
.LVL65:
.LBE5832:
.LBE5831:
	.loc 1 181 0
	subl	%r14d, %eax
.LVL66:
	movq	%r14, %rcx
.LBB5837:
.LBB5833:
	.loc 2 430 0
	movslq	%eax, %r12
.LVL67:
.LBE5833:
.LBE5837:
.LBB5838:
.LBB5839:
	subl	$1, %eax
.LVL68:
.LBE5839:
.LBE5838:
.LBB5844:
.LBB5834:
	movq	(%rdx), %rdx
.LBE5834:
.LBE5844:
.LBB5845:
.LBB5840:
	cltq
.LBE5840:
.LBE5845:
.LBB5846:
.LBB5835:
	imulq	%rdx, %r12
.LBE5835:
.LBE5846:
.LBB5847:
.LBB5848:
	imulq	%rdx, %r14
.LBE5848:
.LBE5847:
.LBB5850:
.LBB5841:
	imulq	%rdx, %rax
.LVL69:
.LBE5841:
.LBE5850:
.LBB5851:
.LBB5836:
	addq	%r15, %r12
.LVL70:
.LBE5836:
.LBE5851:
.LBB5852:
.LBB5849:
	addq	%r15, %r14
.LVL71:
.LBE5849:
.LBE5852:
.LBB5853:
.LBB5842:
	addq	%r15, %rax
.LBE5842:
.LBE5853:
.LBB5854:
	.loc 1 184 0
	testl	%ecx, %ecx
.LBE5854:
.LBB5861:
.LBB5843:
	.loc 2 430 0
	movq	%rax, 8(%rsp)
.LVL72:
.LBE5843:
.LBE5861:
.LBB5862:
	.loc 1 184 0
	jle	.L30
	movslq	84(%rbx), %rax
	xorl	%r13d, %r13d
.LVL73:
.L31:
.LBB5855:
.LBB5856:
	.file 5 "/usr/include/x86_64-linux-gnu/bits/string3.h"
	.loc 5 53 0 discriminator 2
	leaq	(%rax,%rax,2), %rdx
	movq	%r15, %rdi
	movq	%r14, %rsi
.LBE5856:
.LBE5855:
	.loc 1 184 0 discriminator 2
	addl	$1, %r13d
.LVL74:
.LBB5858:
.LBB5857:
	.loc 5 53 0 discriminator 2
	salq	$2, %rdx
	call	memcpy
.LVL75:
.LBE5857:
.LBE5858:
.LBB5859:
.LBB5860:
	movslq	84(%rbx), %rax
	movq	8(%rsp), %rsi
	movq	%r12, %rdi
	leaq	(%rax,%rax,2), %rdx
	salq	$2, %rdx
	call	memcpy
.LVL76:
.LBE5860:
.LBE5859:
	.loc 1 184 0 discriminator 2
	movslq	84(%rbx), %rax
	leaq	(%rax,%rax,2), %rdx
	salq	$2, %rdx
	addq	%rdx, %r15
.LVL77:
	addq	%rdx, %r12
.LVL78:
	cmpl	%r13d, 76(%rbx)
	jg	.L31
.LVL79:
.L30:
.LBE5862:
.LBE5830:
.LBE5829:
.LBB5863:
	.loc 1 192 0
	movl	80(%rbx), %eax
	movl	16(%rsp), %r15d
	leal	3(%rax), %edx
	testl	%eax, %eax
	movl	%r15d, %r14d
	movl	%eax, %edi
	movl	%eax, 24(%rsp)
	cmovns	%eax, %edx
	sarl	$2, %edx
	imull	%edx, %r14d
	leal	(%rdx,%r14), %eax
	cmpl	%edi, %eax
	movl	%eax, %esi
	cmovg	%edi, %esi
	cmpl	%r14d, %edi
	movl	%esi, 8(%rsp)
	jle	.L12
	movl	20(%rsp), %esi
	movl	96(%rbx), %r13d
.LBB5864:
.LBB5865:
.LBB5866:
.LBB5867:
.LBB5868:
.LBB5869:
	.loc 5 53 0
	leaq	32(%rsp), %r12
	movl	84(%rbx), %eax
	movl	%esi, %edi
	movl	%r13d, %ecx
	imull	%edx, %edi
	movl	%edi, 28(%rsp)
	movl	%esi, %edi
	addl	%r15d, %edi
	movl	%edi, %esi
	addl	$1, %esi
	imull	%edx, %edi
	imull	%esi, %edx
	movl	%edi, 16(%rsp)
	subl	%edi, %edx
	movl	%edx, 20(%rsp)
.L15:
	movslq	%r14d, %r15
.L14:
.LVL80:
.LBE5869:
.LBE5868:
.LBE5867:
.LBE5866:
	.loc 1 195 0
	movq	56(%rbx), %rsi
.LVL81:
.LBB5974:
.LBB5975:
	.loc 2 430 0
	movl	76(%rbx), %edx
.LBE5975:
.LBE5974:
.LBB5977:
.LBB5978:
	movq	%r15, %r11
.LBE5978:
.LBE5977:
.LBB5980:
	.loc 1 200 0
	xorl	%r10d, %r10d
.LBE5980:
.LBB5981:
.LBB5976:
	.loc 2 430 0
	movq	72(%rsi), %rdi
	addl	%r14d, %edx
.LVL82:
	movslq	%edx, %rdx
	imulq	(%rdi), %rdx
.LVL83:
	addq	16(%rsi), %rdx
.LVL84:
.LBE5976:
.LBE5981:
	.loc 1 196 0
	movq	64(%rbx), %rsi
.LVL85:
.LBB5982:
.LBB5979:
	.loc 2 430 0
	movq	72(%rsi), %rdi
	imulq	(%rdi), %r11
.LVL86:
.LBE5979:
.LBE5982:
.LBB5983:
	.loc 1 200 0
	movl	%ecx, %edi
	imull	%eax, %edi
	addq	16(%rsi), %r11
.LVL87:
	testl	%edi, %edi
	jle	.L19
.LVL88:
	.p2align 4,,10
	.p2align 3
.L48:
.LBB5972:
.LBB5871:
	.loc 1 213 0
	movq	24(%rbx), %r8
.LBE5871:
.LBB5924:
.LBB5925:
.LBB5926:
.LBB5927:
	.loc 4 884 0
	movss	0(%rbp), %xmm3
.LVL89:
	leaq	4(%rbp), %rdi
.LBE5927:
.LBE5926:
.LBE5925:
.LBE5924:
.LBB5928:
.LBB5929:
	.loc 4 931 0
	movups	(%rdx), %xmm4
.LBE5929:
.LBE5928:
.LBB5930:
	.loc 1 213 0
	movl	$1, %esi
.LBE5930:
.LBB5931:
.LBB5932:
	.loc 4 743 0
	shufps	$0, %xmm3, %xmm3
.LVL90:
.LBE5932:
.LBE5931:
.LBB5933:
	.loc 1 213 0
	cmpl	$1, (%r8)
.LBE5933:
.LBB5934:
.LBB5935:
	.loc 4 931 0
	movups	16(%rdx), %xmm6
.LVL91:
.LBE5935:
.LBE5934:
.LBB5936:
.LBB5937:
	.loc 4 195 0
	mulps	%xmm3, %xmm4
.LVL92:
.LBE5937:
.LBE5936:
.LBB5938:
.LBB5939:
	.loc 4 931 0
	movups	32(%rdx), %xmm5
.LVL93:
.LBE5939:
.LBE5938:
.LBB5940:
.LBB5941:
	.loc 4 195 0
	mulps	%xmm3, %xmm6
.LVL94:
.LBE5941:
.LBE5940:
.LBB5942:
.LBB5943:
	.loc 4 931 0
	movups	48(%rdx), %xmm0
.LVL95:
.LBE5943:
.LBE5942:
.LBB5944:
.LBB5945:
	.loc 4 195 0
	mulps	%xmm3, %xmm5
.LVL96:
.LBE5945:
.LBE5944:
.LBB5946:
.LBB5947:
	mulps	%xmm0, %xmm3
.LVL97:
.LBE5947:
.LBE5946:
.LBB5948:
	.loc 1 213 0
	jle	.L28
.LVL98:
	.p2align 4,,10
	.p2align 3
.L46:
.LBB5872:
.LBB5873:
	.loc 4 931 0 discriminator 2
	movl	84(%rbx), %eax
.LBE5873:
.LBE5872:
.LBB5879:
.LBB5880:
.LBB5881:
.LBB5882:
	.loc 4 884 0 discriminator 2
	movss	(%rdi), %xmm0
.LVL99:
.LBE5882:
.LBE5881:
.LBE5880:
.LBE5879:
.LBB5883:
.LBB5874:
	.loc 4 931 0 discriminator 2
	movq	%rdx, %r9
	addq	$4, %rdi
.LBE5874:
.LBE5883:
.LBB5884:
.LBB5885:
	.loc 4 743 0 discriminator 2
	movaps	%xmm0, %xmm2
.LBE5885:
.LBE5884:
.LBB5887:
.LBB5875:
	.loc 4 931 0 discriminator 2
	imull	%esi, %eax
.LBE5875:
.LBE5887:
	.loc 1 213 0 discriminator 2
	addl	$1, %esi
.LVL100:
.LBB5888:
.LBB5876:
	.loc 4 931 0 discriminator 2
	imull	96(%rbx), %eax
.LBE5876:
.LBE5888:
.LBB5889:
.LBB5886:
	.loc 4 743 0 discriminator 2
	shufps	$0, %xmm0, %xmm2
.LVL101:
.LBE5886:
.LBE5889:
.LBB5890:
.LBB5877:
	.loc 4 931 0 discriminator 2
	cltq
	leaq	0(,%rax,4), %rcx
	subq	%rcx, %r9
.LBE5877:
.LBE5890:
.LBB5891:
.LBB5892:
	movups	(%rdx,%rcx), %xmm0
.LBE5892:
.LBE5891:
.LBB5893:
.LBB5894:
	movq	%rax, %rcx
.LBE5894:
.LBE5893:
.LBB5897:
.LBB5878:
	movups	(%r9), %xmm1
.LVL102:
.LBE5878:
.LBE5897:
.LBB5898:
.LBB5895:
	negq	%rcx
	salq	$2, %rcx
.LBE5895:
.LBE5898:
	.loc 1 213 0 discriminator 2
	cmpl	%esi, (%r8)
.LBB5899:
.LBB5900:
	.loc 4 183 0 discriminator 2
	addps	%xmm1, %xmm0
.LBE5900:
.LBE5899:
.LBB5902:
.LBB5896:
	.loc 4 931 0 discriminator 2
	movups	16(%rdx,%rcx), %xmm1
.LBE5896:
.LBE5902:
.LBB5903:
.LBB5901:
	.loc 4 183 0 discriminator 2
	mulps	%xmm2, %xmm0
	addps	%xmm0, %xmm4
.LVL103:
.LBE5901:
.LBE5903:
.LBB5904:
.LBB5905:
	.loc 4 931 0 discriminator 2
	movups	16(%rdx,%rax,4), %xmm0
.LVL104:
.LBE5905:
.LBE5904:
.LBB5906:
.LBB5907:
	.loc 4 183 0 discriminator 2
	addps	%xmm1, %xmm0
.LBE5907:
.LBE5906:
.LBB5909:
.LBB5910:
	.loc 4 931 0 discriminator 2
	movups	32(%rdx,%rcx), %xmm1
.LBE5910:
.LBE5909:
.LBB5911:
.LBB5908:
	.loc 4 183 0 discriminator 2
	mulps	%xmm2, %xmm0
	addps	%xmm0, %xmm6
.LVL105:
.LBE5908:
.LBE5911:
.LBB5912:
.LBB5913:
	.loc 4 931 0 discriminator 2
	movups	32(%rdx,%rax,4), %xmm0
.LVL106:
.LBE5913:
.LBE5912:
.LBB5914:
.LBB5915:
	.loc 4 183 0 discriminator 2
	addps	%xmm1, %xmm0
.LBE5915:
.LBE5914:
.LBB5917:
.LBB5918:
	.loc 4 931 0 discriminator 2
	movups	48(%rdx,%rax,4), %xmm1
.LBE5918:
.LBE5917:
.LBB5919:
.LBB5916:
	.loc 4 183 0 discriminator 2
	mulps	%xmm2, %xmm0
	addps	%xmm0, %xmm5
.LVL107:
.LBE5916:
.LBE5919:
.LBB5920:
.LBB5921:
	.loc 4 931 0 discriminator 2
	movups	48(%rdx,%rcx), %xmm0
.LVL108:
.LBE5921:
.LBE5920:
.LBB5922:
.LBB5923:
	.loc 4 183 0 discriminator 2
	addps	%xmm1, %xmm0
	mulps	%xmm2, %xmm0
	addps	%xmm0, %xmm3
.LVL109:
.LBE5923:
.LBE5922:
	.loc 1 213 0 discriminator 2
	jg	.L46
.LVL110:
.L28:
.LBE5948:
	.loc 1 233 0
	movl	96(%rbx), %ecx
	movl	88(%rbx), %eax
.LBB5949:
.LBB5950:
	.loc 3 815 0
	cvttps2dq	%xmm4, %xmm4
.LVL111:
.LBE5950:
.LBE5949:
.LBB5951:
.LBB5952:
	cvttps2dq	%xmm6, %xmm6
.LVL112:
.LBE5952:
.LBE5951:
.LBB5953:
.LBB5954:
	cvttps2dq	%xmm5, %xmm5
.LVL113:
.LBE5954:
.LBE5953:
.LBB5955:
.LBB5956:
	cvttps2dq	%xmm3, %xmm3
.LVL114:
.LBE5956:
.LBE5955:
.LBB5957:
.LBB5958:
	.loc 3 953 0
	packssdw	%xmm6, %xmm4
.LVL115:
.LBE5958:
.LBE5957:
.LBB5959:
.LBB5960:
	packssdw	%xmm3, %xmm5
.LVL116:
.LBE5960:
.LBE5959:
	.loc 1 233 0
	imull	%ecx, %eax
.LBB5961:
.LBB5962:
	.loc 3 959 0
	packuswb	%xmm5, %xmm4
.LVL117:
.LBE5962:
.LBE5961:
	.loc 1 233 0
	subl	%r10d, %eax
.LVL118:
.LBB5963:
.LBB5964:
	.file 6 "/usr/include/c++/5/bits/stl_algobase.h"
	.loc 6 200 0
	cmpl	$15, %eax
.LBE5964:
.LBE5963:
.LBB5966:
.LBB5967:
	.loc 3 710 0
	movaps	%xmm4, 32(%rsp)
.LBE5967:
.LBE5966:
.LBB5969:
.LBB5965:
	.loc 6 200 0
	jg	.L17
.LVL119:
.LBE5965:
.LBE5969:
	.loc 1 235 0
	testl	%eax, %eax
	jg	.L18
.LVL120:
.L27:
.LBE5972:
	.loc 1 200 0
	movl	84(%rbx), %eax
	addl	$16, %r10d
.LVL121:
	addq	$64, %rdx
.LVL122:
	addq	$16, %r11
	movl	%eax, %esi
	imull	%ecx, %esi
	cmpl	%r10d, %esi
	jg	.L48
.LVL123:
.L19:
	addl	$1, %r14d
.LVL124:
	addq	$1, %r15
	cmpl	8(%rsp), %r14d
	jl	.L14
	movl	16(%rsp), %edi
	movl	20(%rsp), %edx
.LVL125:
	movl	24(%rsp), %esi
	addl	%edi, %edx
	movl	%edi, %r14d
.LVL126:
	cmpl	%esi, %edx
	cmovg	%esi, %edx
	movl	%edx, 8(%rsp)
	movl	%edi, %edx
	movl	28(%rsp), %edi
	addl	%edi, %edx
	movl	%edx, 16(%rsp)
	subl	%edi, %edx
	cmpl	%edx, %esi
	jg	.L15
.L12:
	call	GOMP_barrier
.LVL127:
.LBE5983:
.LBE5865:
.LBE5864:
.LBE5863:
	.loc 1 120 0
	movq	56(%rsp), %rax
	xorq	%fs:40, %rax
	jne	.L60
	addq	$72, %rsp
	.cfi_remember_state
	.cfi_def_cfa_offset 56
	popq	%rbx
	.cfi_def_cfa_offset 48
.LVL128:
	popq	%rbp
	.cfi_def_cfa_offset 40
.LVL129:
	popq	%r12
	.cfi_def_cfa_offset 32
	popq	%r13
	.cfi_def_cfa_offset 24
	popq	%r14
	.cfi_def_cfa_offset 16
	popq	%r15
	.cfi_def_cfa_offset 8
	ret
.LVL130:
	.p2align 4,,10
	.p2align 3
.L17:
	.cfi_restore_state
.LBB5987:
.LBB5986:
.LBB5985:
.LBB5984:
.LBB5973:
.LBB5970:
.LBB5968:
	.loc 3 710 0
	movl	$16, %eax
.LVL131:
.L32:
.LBE5968:
.LBE5970:
.LBB5971:
.LBB5870:
	.loc 5 53 0 discriminator 1
	cmpl	$8, %eax
	movl	%eax, %ecx
	jnb	.L21
	testb	$4, %al
	jne	.L61
	testl	%ecx, %ecx
	je	.L22
	movzbl	(%r12), %eax
	testb	$2, %cl
	movb	%al, (%r11)
	jne	.L62
.L57:
	movl	96(%rbx), %r13d
.L22:
	movl	%r13d, %ecx
	jmp	.L27
	.p2align 4,,10
	.p2align 3
.L21:
	movq	(%r12), %rcx
	movq	%r12, %rdi
	movq	%rcx, (%r11)
	movl	%eax, %ecx
	movq	-8(%r12,%rcx), %rsi
	movq	%rsi, -8(%r11,%rcx)
	leaq	8(%r11), %rsi
	movq	%r11, %rcx
	andq	$-8, %rsi
	subq	%rsi, %rcx
	subq	%rcx, %rdi
	addl	%eax, %ecx
	andl	$-8, %ecx
	cmpl	$8, %ecx
	jb	.L57
	andl	$-8, %ecx
	xorl	%eax, %eax
.L25:
	movl	%eax, %r8d
	addl	$8, %eax
	movq	(%rdi,%r8), %r9
	cmpl	%ecx, %eax
	movq	%r9, (%rsi,%r8)
	jb	.L25
	jmp	.L57
.L61:
	movl	(%r12), %eax
	movl	%eax, (%r11)
	movl	-4(%r12,%rcx), %eax
	movl	%eax, -4(%r11,%rcx)
	movl	96(%rbx), %r13d
	jmp	.L22
.LVL132:
.L18:
	cltq
	jmp	.L32
.LVL133:
.L62:
	movzwl	-2(%r12,%rcx), %eax
	movw	%ax, -2(%r11,%rcx)
	movl	96(%rbx), %r13d
	jmp	.L22
.LVL134:
.L60:
.LBE5870:
.LBE5971:
.LBE5973:
.LBE5984:
.LBE5985:
.LBE5986:
.LBE5987:
	.loc 1 120 0
	call	__stack_chk_fail
.LVL135:
	.cfi_endproc
.LFE12399:
	.size	_Z12gaussianBlurIN2cv3VecIhLi3EEENS1_IfLi3EEELi3EEvRKNS0_3MatERS4_NS0_5Size_IiEEdd._omp_fn.0, .-_Z12gaussianBlurIN2cv3VecIhLi3EEENS1_IfLi3EEELi3EEvRKNS0_3MatERS4_NS0_5Size_IiEEdd._omp_fn.0
	.section	.text.unlikely._Z12gaussianBlurIN2cv3VecIhLi3EEENS1_IfLi3EEELi3EEvRKNS0_3MatERS4_NS0_5Size_IiEEdd._omp_fn.0,"axG",@progbits,_Z12gaussianBlurIN2cv3VecIhLi3EEENS1_IfLi3EEELi3EEvRKNS0_3MatERS4_NS0_5Size_IiEEdd,comdat
.LCOLDE0:
	.section	.text._Z12gaussianBlurIN2cv3VecIhLi3EEENS1_IfLi3EEELi3EEvRKNS0_3MatERS4_NS0_5Size_IiEEdd._omp_fn.0,"axG",@progbits,_Z12gaussianBlurIN2cv3VecIhLi3EEENS1_IfLi3EEELi3EEvRKNS0_3MatERS4_NS0_5Size_IiEEdd,comdat
.LHOTE0:
	.section	.text.unlikely._Z12gaussianBlurIN2cv3VecIhLi2EEENS1_IfLi2EEELi2EEvRKNS0_3MatERS4_NS0_5Size_IiEEdd._omp_fn.1,"axG",@progbits,_Z12gaussianBlurIN2cv3VecIhLi2EEENS1_IfLi2EEELi2EEvRKNS0_3MatERS4_NS0_5Size_IiEEdd,comdat
.LCOLDB1:
	.section	.text._Z12gaussianBlurIN2cv3VecIhLi2EEENS1_IfLi2EEELi2EEvRKNS0_3MatERS4_NS0_5Size_IiEEdd._omp_fn.1,"axG",@progbits,_Z12gaussianBlurIN2cv3VecIhLi2EEENS1_IfLi2EEELi2EEvRKNS0_3MatERS4_NS0_5Size_IiEEdd,comdat
.LHOTB1:
	.p2align 4,,15
	.type	_Z12gaussianBlurIN2cv3VecIhLi2EEENS1_IfLi2EEELi2EEvRKNS0_3MatERS4_NS0_5Size_IiEEdd._omp_fn.1, @function
_Z12gaussianBlurIN2cv3VecIhLi2EEENS1_IfLi2EEELi2EEvRKNS0_3MatERS4_NS0_5Size_IiEEdd._omp_fn.1:
.LFB12400:
	.loc 1 120 0
	.cfi_startproc
	.cfi_personality 0x3,__gxx_personality_v0
.LVL136:
	pushq	%r15
	.cfi_def_cfa_offset 16
	.cfi_offset 15, -16
	pushq	%r14
	.cfi_def_cfa_offset 24
	.cfi_offset 14, -24
	pushq	%r13
	.cfi_def_cfa_offset 32
	.cfi_offset 13, -32
	pushq	%r12
	.cfi_def_cfa_offset 40
	.cfi_offset 12, -40
	pushq	%rbp
	.cfi_def_cfa_offset 48
	.cfi_offset 6, -48
	pushq	%rbx
	.cfi_def_cfa_offset 56
	.cfi_offset 3, -56
	movq	%rdi, %rbx
	subq	$72, %rsp
	.cfi_def_cfa_offset 128
.LBB5988:
	.loc 1 125 0
	movl	80(%rdi), %r14d
.LBE5988:
	.loc 1 120 0
	movq	40(%rdi), %r12
.LVL137:
	movq	%fs:40, %rax
	movq	%rax, 56(%rsp)
	xorl	%eax, %eax
	movq	32(%rdi), %rbp
.LVL138:
.LBB6119:
	.loc 1 125 0
	leal	3(%r14), %ecx
	testl	%r14d, %r14d
	cmovns	%r14d, %ecx
	sarl	$2, %ecx
	movl	%ecx, 8(%rsp)
	call	omp_get_num_threads
.LVL139:
	movl	%eax, %r15d
	movl	%eax, 20(%rsp)
	call	omp_get_thread_num
.LVL140:
	movl	8(%rsp), %ecx
	movl	%eax, %r10d
	movl	%eax, 16(%rsp)
	imull	%ecx, %r10d
	leal	(%rcx,%r10), %r13d
	cmpl	%r14d, %r13d
	cmovg	%r14d, %r13d
	cmpl	%r10d, %r14d
	jle	.L64
	movl	%r15d, %edi
	movl	%eax, %r11d
	movl	96(%rbx), %edx
	imull	%ecx, %edi
	movl	84(%rbx), %eax
	movl	%edi, 24(%rsp)
	movl	%r15d, %edi
	addl	%r11d, %edi
	movl	%edi, %esi
	movl	%edi, %r15d
	addl	$1, %esi
	imull	%ecx, %r15d
	imull	%esi, %ecx
	subl	%r15d, %ecx
	movl	%ecx, 28(%rsp)
.L67:
	movslq	%r10d, %r11
.L66:
.LVL141:
.LBB5989:
.LBB5990:
	.loc 1 128 0
	movq	48(%rbx), %rcx
.LVL142:
	movq	%r11, %rdi
.LBB5991:
.LBB5992:
	.loc 2 430 0
	movl	76(%rbx), %r8d
.LBE5992:
.LBE5991:
.LBB5995:
	.loc 1 133 0
	xorl	%r9d, %r9d
.LBE5995:
.LBB6114:
.LBB6115:
	.loc 2 430 0
	movq	72(%rcx), %rsi
.LBE6115:
.LBE6114:
.LBB6116:
.LBB5993:
	addl	%r10d, %r8d
	movslq	%r8d, %r8
.LBE5993:
.LBE6116:
	.loc 1 128 0
	imulq	(%rsi), %rdi
	movq	%rdi, %rsi
	movslq	72(%rbx), %rdi
	leaq	(%rsi,%rdi,2), %rsi
	.loc 1 129 0
	movq	56(%rbx), %rdi
	.loc 1 128 0
	addq	16(%rcx), %rsi
.LVL143:
.LBB6117:
.LBB5994:
	.loc 2 430 0
	movq	72(%rdi), %rcx
.LVL144:
	imulq	(%rcx), %r8
.LVL145:
.LBE5994:
.LBE6117:
.LBB6118:
	.loc 1 133 0
	movl	%edx, %ecx
	imull	%eax, %ecx
	addq	16(%rdi), %r8
.LVL146:
	testl	%ecx, %ecx
	jle	.L69
.LVL147:
	.p2align 4,,10
	.p2align 3
.L106:
.LBB5996:
.LBB5997:
.LBB5998:
	.loc 3 698 0
	movdqu	(%rsi), %xmm0
.LBE5998:
.LBE5997:
.LBB5999:
.LBB6000:
.LBB6001:
.LBB6002:
	.loc 4 884 0
	movss	(%r12), %xmm6
.LVL148:
	leaq	4(%r12), %rcx
.LBE6002:
.LBE6001:
.LBE6000:
.LBE5999:
.LBB6003:
	.loc 1 149 0
	movq	16(%rbx), %rdi
	movl	$1, %edx
.LBE6003:
	.loc 1 138 0
	movdqa	(%rbx), %xmm5
.LBB6067:
.LBB6068:
	.loc 3 965 0
	movdqa	%xmm0, %xmm7
.LBE6068:
.LBE6067:
.LBB6070:
.LBB6071:
	.loc 4 743 0
	shufps	$0, %xmm6, %xmm6
.LVL149:
.LBE6071:
.LBE6070:
.LBB6072:
.LBB6069:
	.loc 3 965 0
	punpckhbw	%xmm5, %xmm7
.LVL150:
.LBE6069:
.LBE6072:
.LBB6073:
	.loc 1 149 0
	cmpl	$1, (%rdi)
.LBE6073:
.LBB6074:
.LBB6075:
	.loc 3 989 0
	punpcklbw	%xmm5, %xmm0
.LVL151:
.LBE6075:
.LBE6074:
.LBB6076:
.LBB6077:
	.loc 3 995 0
	movdqa	%xmm7, %xmm8
.LBE6077:
.LBE6076:
.LBB6079:
.LBB6080:
	.loc 3 971 0
	movdqa	%xmm0, %xmm9
.LBE6080:
.LBE6079:
.LBB6082:
.LBB6083:
	punpckhwd	%xmm5, %xmm7
.LVL152:
.LBE6083:
.LBE6082:
.LBB6084:
.LBB6085:
	.loc 3 995 0
	punpcklwd	%xmm5, %xmm0
.LVL153:
.LBE6085:
.LBE6084:
.LBB6086:
.LBB6081:
	.loc 3 971 0
	punpckhwd	%xmm5, %xmm9
.LVL154:
.LBE6081:
.LBE6086:
.LBB6087:
.LBB6078:
	.loc 3 995 0
	punpcklwd	%xmm5, %xmm8
.LVL155:
.LBE6078:
.LBE6087:
.LBB6088:
.LBB6089:
	.loc 3 767 0
	cvtdq2ps	%xmm7, %xmm7
.LVL156:
.LBE6089:
.LBE6088:
.LBB6090:
.LBB6091:
	cvtdq2ps	%xmm0, %xmm0
.LVL157:
.LBE6091:
.LBE6090:
.LBB6092:
.LBB6093:
	.loc 4 195 0
	mulps	%xmm6, %xmm7
.LVL158:
.LBE6093:
.LBE6092:
.LBB6094:
.LBB6095:
	.loc 3 767 0
	cvtdq2ps	%xmm9, %xmm9
.LVL159:
.LBE6095:
.LBE6094:
.LBB6096:
.LBB6097:
	cvtdq2ps	%xmm8, %xmm8
.LVL160:
.LBE6097:
.LBE6096:
.LBB6098:
.LBB6099:
	.loc 4 195 0
	mulps	%xmm6, %xmm9
.LBE6099:
.LBE6098:
.LBB6100:
.LBB6101:
	mulps	%xmm6, %xmm8
.LVL161:
.LBE6101:
.LBE6100:
.LBB6102:
.LBB6103:
	mulps	%xmm0, %xmm6
.LVL162:
.LBE6103:
.LBE6102:
.LBB6104:
	.loc 1 149 0
	jle	.L71
	movq	%r8, 8(%rsp)
.LVL163:
	.p2align 4,,10
	.p2align 3
.L107:
.LBB6004:
	.loc 1 152 0 discriminator 2
	movl	96(%rbx), %eax
.LBB6005:
.LBB6006:
	.loc 3 698 0 discriminator 2
	movq	%rsi, %r8
.LBE6006:
.LBE6005:
.LBB6009:
.LBB6010:
.LBB6011:
.LBB6012:
	.loc 4 884 0 discriminator 2
	movss	(%rcx), %xmm0
.LVL164:
	addq	$4, %rcx
.LBE6012:
.LBE6011:
.LBE6010:
.LBE6009:
.LBB6013:
.LBB6014:
	.loc 4 743 0 discriminator 2
	shufps	$0, %xmm0, %xmm0
.LVL165:
.LBE6014:
.LBE6013:
	.loc 1 152 0 discriminator 2
	imull	%edx, %eax
.LBE6004:
	.loc 1 149 0 discriminator 2
	addl	$1, %edx
.LVL166:
.LBB6065:
	.loc 1 152 0 discriminator 2
	cltq
.LVL167:
.LBB6015:
.LBB6007:
	.loc 3 698 0 discriminator 2
	subq	%rax, %r8
.LVL168:
.LBE6007:
.LBE6015:
.LBB6016:
.LBB6017:
	movdqu	(%rsi,%rax), %xmm3
.LVL169:
.LBE6017:
.LBE6016:
.LBE6065:
	.loc 1 149 0 discriminator 2
	cmpl	%edx, (%rdi)
.LBB6066:
.LBB6018:
.LBB6008:
	.loc 3 698 0 discriminator 2
	movdqu	(%r8), %xmm4
.LVL170:
.LBE6008:
.LBE6018:
.LBB6019:
.LBB6020:
	.loc 3 965 0 discriminator 2
	movdqa	%xmm3, %xmm1
.LBE6020:
.LBE6019:
.LBB6022:
.LBB6023:
	.loc 3 989 0 discriminator 2
	punpcklbw	%xmm5, %xmm3
.LVL171:
.LBE6023:
.LBE6022:
.LBB6024:
.LBB6025:
	.loc 3 965 0 discriminator 2
	movdqa	%xmm4, %xmm2
.LBE6025:
.LBE6024:
.LBB6027:
.LBB6021:
	punpckhbw	%xmm5, %xmm1
.LVL172:
.LBE6021:
.LBE6027:
.LBB6028:
.LBB6029:
	.loc 3 989 0 discriminator 2
	punpcklbw	%xmm5, %xmm4
.LVL173:
.LBE6029:
.LBE6028:
.LBB6030:
.LBB6026:
	.loc 3 965 0 discriminator 2
	punpckhbw	%xmm5, %xmm2
.LVL174:
.LBE6026:
.LBE6030:
.LBB6031:
.LBB6032:
	.loc 3 971 0 discriminator 2
	paddw	%xmm4, %xmm3
	movdqa	%xmm3, %xmm4
.LVL175:
.LBE6032:
.LBE6031:
.LBB6034:
.LBB6035:
	.loc 3 995 0 discriminator 2
	paddw	%xmm2, %xmm1
	movdqa	%xmm1, %xmm2
.LVL176:
.LBE6035:
.LBE6034:
.LBB6037:
.LBB6038:
	.loc 3 971 0 discriminator 2
	punpckhwd	%xmm5, %xmm1
.LBE6038:
.LBE6037:
.LBB6039:
.LBB6033:
	punpckhwd	%xmm5, %xmm4
.LVL177:
.LBE6033:
.LBE6039:
.LBB6040:
.LBB6036:
	.loc 3 995 0 discriminator 2
	punpcklwd	%xmm5, %xmm2
.LBE6036:
.LBE6040:
.LBB6041:
.LBB6042:
	.loc 3 767 0 discriminator 2
	cvtdq2ps	%xmm1, %xmm1
.LBE6042:
.LBE6041:
.LBB6043:
.LBB6044:
	.loc 4 183 0 discriminator 2
	mulps	%xmm0, %xmm1
.LBE6044:
.LBE6043:
.LBB6046:
.LBB6047:
	.loc 3 995 0 discriminator 2
	punpcklwd	%xmm5, %xmm3
.LVL178:
.LBE6047:
.LBE6046:
.LBB6048:
.LBB6045:
	.loc 4 183 0 discriminator 2
	addps	%xmm1, %xmm7
.LVL179:
.LBE6045:
.LBE6048:
.LBB6049:
.LBB6050:
	.loc 3 767 0 discriminator 2
	cvtdq2ps	%xmm2, %xmm1
.LVL180:
.LBE6050:
.LBE6049:
.LBB6051:
.LBB6052:
	cvtdq2ps	%xmm3, %xmm3
.LVL181:
.LBE6052:
.LBE6051:
.LBB6053:
.LBB6054:
	.loc 4 183 0 discriminator 2
	mulps	%xmm0, %xmm1
	addps	%xmm1, %xmm8
.LVL182:
.LBE6054:
.LBE6053:
.LBB6055:
.LBB6056:
	.loc 3 767 0 discriminator 2
	cvtdq2ps	%xmm4, %xmm1
.LVL183:
.LBE6056:
.LBE6055:
.LBB6057:
.LBB6058:
	.loc 4 183 0 discriminator 2
	mulps	%xmm0, %xmm1
.LBE6058:
.LBE6057:
.LBB6060:
.LBB6061:
	mulps	%xmm3, %xmm0
.LVL184:
.LBE6061:
.LBE6060:
.LBB6063:
.LBB6059:
	addps	%xmm1, %xmm9
.LVL185:
.LBE6059:
.LBE6063:
.LBB6064:
.LBB6062:
	addps	%xmm0, %xmm6
.LVL186:
.LBE6062:
.LBE6064:
.LBE6066:
	.loc 1 149 0 discriminator 2
	jg	.L107
	movq	8(%rsp), %r8
.LVL187:
.L71:
.LBE6104:
.LBB6105:
.LBB6106:
	.loc 4 980 0
	movups	%xmm6, (%r8)
.LVL188:
.LBE6106:
.LBE6105:
.LBE5996:
	.loc 1 133 0
	addl	$16, %r9d
.LVL189:
	addq	$16, %rsi
.LVL190:
	addq	$64, %r8
.LVL191:
.LBB6113:
.LBB6107:
.LBB6108:
	.loc 4 980 0
	movups	%xmm9, -48(%r8)
.LVL192:
.LBE6108:
.LBE6107:
.LBB6109:
.LBB6110:
	movups	%xmm8, -32(%r8)
.LVL193:
.LBE6110:
.LBE6109:
.LBB6111:
.LBB6112:
	movups	%xmm7, -16(%r8)
.LVL194:
.LBE6112:
.LBE6111:
.LBE6113:
	.loc 1 133 0
	movl	96(%rbx), %edx
	movl	84(%rbx), %eax
	movl	%edx, %ecx
	imull	%eax, %ecx
	cmpl	%r9d, %ecx
	jg	.L106
.LVL195:
.L69:
	addl	$1, %r10d
.LVL196:
	addq	$1, %r11
	cmpl	%r13d, %r10d
	jl	.L66
	movl	28(%rsp), %edi
	movl	%r15d, %r10d
.LVL197:
	leal	(%r15,%rdi), %r13d
	movl	24(%rsp), %edi
	cmpl	%r14d, %r13d
	cmovg	%r14d, %r13d
	addl	%edi, %r15d
	movl	%r15d, %ecx
	subl	%edi, %ecx
	cmpl	%ecx, %r14d
	jg	.L67
.LVL198:
.L64:
	call	GOMP_barrier
.LVL199:
.LBE6118:
.LBE5990:
.LBE5989:
.LBE6119:
.LBB6120:
	.loc 1 179 0
	movl	16(%rsp), %eax
	testl	%eax, %eax
	jne	.L92
.LBB6121:
	.loc 1 180 0
	movq	56(%rbx), %rdx
	.loc 1 181 0
	movslq	76(%rbx), %r14
	movl	92(%rbx), %eax
	movq	16(%rdx), %r15
.LVL200:
.LBB6122:
.LBB6123:
	.loc 2 430 0
	movq	72(%rdx), %rdx
.LVL201:
.LBE6123:
.LBE6122:
	.loc 1 181 0
	subl	%r14d, %eax
.LVL202:
	movq	%r14, %rcx
.LBB6128:
.LBB6124:
	.loc 2 430 0
	movslq	%eax, %r12
.LVL203:
.LBE6124:
.LBE6128:
.LBB6129:
.LBB6130:
	subl	$1, %eax
.LVL204:
.LBE6130:
.LBE6129:
.LBB6135:
.LBB6125:
	movq	(%rdx), %rdx
.LBE6125:
.LBE6135:
.LBB6136:
.LBB6131:
	cltq
.LBE6131:
.LBE6136:
.LBB6137:
.LBB6126:
	imulq	%rdx, %r12
.LBE6126:
.LBE6137:
.LBB6138:
.LBB6139:
	imulq	%rdx, %r14
.LBE6139:
.LBE6138:
.LBB6141:
.LBB6132:
	imulq	%rdx, %rax
.LVL205:
.LBE6132:
.LBE6141:
.LBB6142:
.LBB6127:
	addq	%r15, %r12
.LVL206:
.LBE6127:
.LBE6142:
.LBB6143:
.LBB6140:
	addq	%r15, %r14
.LVL207:
.LBE6140:
.LBE6143:
.LBB6144:
.LBB6133:
	addq	%r15, %rax
.LBE6133:
.LBE6144:
.LBB6145:
	.loc 1 184 0
	testl	%ecx, %ecx
.LBE6145:
.LBB6152:
.LBB6134:
	.loc 2 430 0
	movq	%rax, 8(%rsp)
.LVL208:
.LBE6134:
.LBE6152:
.LBB6153:
	.loc 1 184 0
	jle	.L92
	movslq	84(%rbx), %rax
	xorl	%r13d, %r13d
.LVL209:
.L93:
.LBB6146:
.LBB6147:
	.loc 5 53 0 discriminator 2
	leaq	0(,%rax,8), %rdx
	movq	%r15, %rdi
	movq	%r14, %rsi
.LBE6147:
.LBE6146:
	.loc 1 184 0 discriminator 2
	addl	$1, %r13d
.LVL210:
.LBB6149:
.LBB6148:
	.loc 5 53 0 discriminator 2
	call	memcpy
.LVL211:
.LBE6148:
.LBE6149:
.LBB6150:
.LBB6151:
	movslq	84(%rbx), %rdx
	movq	8(%rsp), %rsi
	movq	%r12, %rdi
	salq	$3, %rdx
.LVL212:
	call	memcpy
.LVL213:
.LBE6151:
.LBE6150:
	.loc 1 184 0 discriminator 2
	movslq	84(%rbx), %rax
	leaq	0(,%rax,8), %rdx
	addq	%rdx, %r15
.LVL214:
	addq	%rdx, %r12
.LVL215:
	cmpl	%r13d, 76(%rbx)
	jg	.L93
.LVL216:
.L92:
.LBE6153:
.LBE6121:
.LBE6120:
.LBB6154:
	.loc 1 192 0
	movl	80(%rbx), %eax
	movl	16(%rsp), %r15d
	leal	3(%rax), %edx
	testl	%eax, %eax
	movl	%r15d, %r14d
	movl	%eax, %edi
	movl	%eax, 24(%rsp)
	cmovns	%eax, %edx
	sarl	$2, %edx
	imull	%edx, %r14d
	leal	(%rdx,%r14), %eax
	cmpl	%edi, %eax
	movl	%eax, %esi
	cmovg	%edi, %esi
	cmpl	%r14d, %edi
	movl	%esi, 8(%rsp)
	jle	.L74
	movl	20(%rsp), %esi
	movl	96(%rbx), %r13d
.LBB6155:
.LBB6156:
.LBB6157:
.LBB6158:
.LBB6159:
.LBB6160:
	.loc 5 53 0
	leaq	32(%rsp), %r12
	movl	84(%rbx), %eax
	movl	%esi, %edi
	movl	%r13d, %ecx
	imull	%edx, %edi
	movl	%edi, 28(%rsp)
	movl	%esi, %edi
	addl	%r15d, %edi
	movl	%edi, %esi
	addl	$1, %esi
	imull	%edx, %edi
	imull	%esi, %edx
	movl	%edi, 16(%rsp)
	subl	%edi, %edx
	movl	%edx, 20(%rsp)
.L77:
	movslq	%r14d, %r15
.L76:
.LVL217:
.LBE6160:
.LBE6159:
.LBE6158:
.LBE6157:
	.loc 1 195 0
	movq	56(%rbx), %rsi
.LVL218:
.LBB6265:
.LBB6266:
	.loc 2 430 0
	movl	76(%rbx), %edx
.LBE6266:
.LBE6265:
.LBB6268:
.LBB6269:
	movq	%r15, %r11
.LBE6269:
.LBE6268:
.LBB6271:
	.loc 1 200 0
	xorl	%r10d, %r10d
.LBE6271:
.LBB6272:
.LBB6267:
	.loc 2 430 0
	movq	72(%rsi), %rdi
	addl	%r14d, %edx
.LVL219:
	movslq	%edx, %rdx
	imulq	(%rdi), %rdx
.LVL220:
	addq	16(%rsi), %rdx
.LVL221:
.LBE6267:
.LBE6272:
	.loc 1 196 0
	movq	64(%rbx), %rsi
.LVL222:
.LBB6273:
.LBB6270:
	.loc 2 430 0
	movq	72(%rsi), %rdi
	imulq	(%rdi), %r11
.LVL223:
.LBE6270:
.LBE6273:
.LBB6274:
	.loc 1 200 0
	movl	%ecx, %edi
	imull	%eax, %edi
	addq	16(%rsi), %r11
.LVL224:
	testl	%edi, %edi
	jle	.L81
.LVL225:
	.p2align 4,,10
	.p2align 3
.L110:
.LBB6263:
.LBB6162:
	.loc 1 213 0
	movq	24(%rbx), %r8
.LBE6162:
.LBB6215:
.LBB6216:
.LBB6217:
.LBB6218:
	.loc 4 884 0
	movss	0(%rbp), %xmm3
.LVL226:
	leaq	4(%rbp), %rdi
.LBE6218:
.LBE6217:
.LBE6216:
.LBE6215:
.LBB6219:
.LBB6220:
	.loc 4 931 0
	movups	(%rdx), %xmm4
.LBE6220:
.LBE6219:
.LBB6221:
	.loc 1 213 0
	movl	$1, %esi
.LBE6221:
.LBB6222:
.LBB6223:
	.loc 4 743 0
	shufps	$0, %xmm3, %xmm3
.LVL227:
.LBE6223:
.LBE6222:
.LBB6224:
	.loc 1 213 0
	cmpl	$1, (%r8)
.LBE6224:
.LBB6225:
.LBB6226:
	.loc 4 931 0
	movups	16(%rdx), %xmm6
.LVL228:
.LBE6226:
.LBE6225:
.LBB6227:
.LBB6228:
	.loc 4 195 0
	mulps	%xmm3, %xmm4
.LVL229:
.LBE6228:
.LBE6227:
.LBB6229:
.LBB6230:
	.loc 4 931 0
	movups	32(%rdx), %xmm5
.LVL230:
.LBE6230:
.LBE6229:
.LBB6231:
.LBB6232:
	.loc 4 195 0
	mulps	%xmm3, %xmm6
.LVL231:
.LBE6232:
.LBE6231:
.LBB6233:
.LBB6234:
	.loc 4 931 0
	movups	48(%rdx), %xmm0
.LVL232:
.LBE6234:
.LBE6233:
.LBB6235:
.LBB6236:
	.loc 4 195 0
	mulps	%xmm3, %xmm5
.LVL233:
.LBE6236:
.LBE6235:
.LBB6237:
.LBB6238:
	mulps	%xmm0, %xmm3
.LVL234:
.LBE6238:
.LBE6237:
.LBB6239:
	.loc 1 213 0
	jle	.L90
.LVL235:
	.p2align 4,,10
	.p2align 3
.L108:
.LBB6163:
.LBB6164:
	.loc 4 931 0 discriminator 2
	movl	84(%rbx), %eax
.LBE6164:
.LBE6163:
.LBB6170:
.LBB6171:
.LBB6172:
.LBB6173:
	.loc 4 884 0 discriminator 2
	movss	(%rdi), %xmm0
.LVL236:
.LBE6173:
.LBE6172:
.LBE6171:
.LBE6170:
.LBB6174:
.LBB6165:
	.loc 4 931 0 discriminator 2
	movq	%rdx, %r9
	addq	$4, %rdi
.LBE6165:
.LBE6174:
.LBB6175:
.LBB6176:
	.loc 4 743 0 discriminator 2
	movaps	%xmm0, %xmm2
.LBE6176:
.LBE6175:
.LBB6178:
.LBB6166:
	.loc 4 931 0 discriminator 2
	imull	%esi, %eax
.LBE6166:
.LBE6178:
	.loc 1 213 0 discriminator 2
	addl	$1, %esi
.LVL237:
.LBB6179:
.LBB6167:
	.loc 4 931 0 discriminator 2
	imull	96(%rbx), %eax
.LBE6167:
.LBE6179:
.LBB6180:
.LBB6177:
	.loc 4 743 0 discriminator 2
	shufps	$0, %xmm0, %xmm2
.LVL238:
.LBE6177:
.LBE6180:
.LBB6181:
.LBB6168:
	.loc 4 931 0 discriminator 2
	cltq
	leaq	0(,%rax,4), %rcx
	subq	%rcx, %r9
.LBE6168:
.LBE6181:
.LBB6182:
.LBB6183:
	movups	(%rdx,%rcx), %xmm0
.LBE6183:
.LBE6182:
.LBB6184:
.LBB6185:
	movq	%rax, %rcx
.LBE6185:
.LBE6184:
.LBB6188:
.LBB6169:
	movups	(%r9), %xmm1
.LVL239:
.LBE6169:
.LBE6188:
.LBB6189:
.LBB6186:
	negq	%rcx
	salq	$2, %rcx
.LBE6186:
.LBE6189:
	.loc 1 213 0 discriminator 2
	cmpl	%esi, (%r8)
.LBB6190:
.LBB6191:
	.loc 4 183 0 discriminator 2
	addps	%xmm1, %xmm0
.LBE6191:
.LBE6190:
.LBB6193:
.LBB6187:
	.loc 4 931 0 discriminator 2
	movups	16(%rdx,%rcx), %xmm1
.LBE6187:
.LBE6193:
.LBB6194:
.LBB6192:
	.loc 4 183 0 discriminator 2
	mulps	%xmm2, %xmm0
	addps	%xmm0, %xmm4
.LVL240:
.LBE6192:
.LBE6194:
.LBB6195:
.LBB6196:
	.loc 4 931 0 discriminator 2
	movups	16(%rdx,%rax,4), %xmm0
.LVL241:
.LBE6196:
.LBE6195:
.LBB6197:
.LBB6198:
	.loc 4 183 0 discriminator 2
	addps	%xmm1, %xmm0
.LBE6198:
.LBE6197:
.LBB6200:
.LBB6201:
	.loc 4 931 0 discriminator 2
	movups	32(%rdx,%rcx), %xmm1
.LBE6201:
.LBE6200:
.LBB6202:
.LBB6199:
	.loc 4 183 0 discriminator 2
	mulps	%xmm2, %xmm0
	addps	%xmm0, %xmm6
.LVL242:
.LBE6199:
.LBE6202:
.LBB6203:
.LBB6204:
	.loc 4 931 0 discriminator 2
	movups	32(%rdx,%rax,4), %xmm0
.LVL243:
.LBE6204:
.LBE6203:
.LBB6205:
.LBB6206:
	.loc 4 183 0 discriminator 2
	addps	%xmm1, %xmm0
.LBE6206:
.LBE6205:
.LBB6208:
.LBB6209:
	.loc 4 931 0 discriminator 2
	movups	48(%rdx,%rax,4), %xmm1
.LBE6209:
.LBE6208:
.LBB6210:
.LBB6207:
	.loc 4 183 0 discriminator 2
	mulps	%xmm2, %xmm0
	addps	%xmm0, %xmm5
.LVL244:
.LBE6207:
.LBE6210:
.LBB6211:
.LBB6212:
	.loc 4 931 0 discriminator 2
	movups	48(%rdx,%rcx), %xmm0
.LVL245:
.LBE6212:
.LBE6211:
.LBB6213:
.LBB6214:
	.loc 4 183 0 discriminator 2
	addps	%xmm1, %xmm0
	mulps	%xmm2, %xmm0
	addps	%xmm0, %xmm3
.LVL246:
.LBE6214:
.LBE6213:
	.loc 1 213 0 discriminator 2
	jg	.L108
.LVL247:
.L90:
.LBE6239:
	.loc 1 233 0
	movl	96(%rbx), %ecx
	movl	88(%rbx), %eax
.LBB6240:
.LBB6241:
	.loc 3 815 0
	cvttps2dq	%xmm4, %xmm4
.LVL248:
.LBE6241:
.LBE6240:
.LBB6242:
.LBB6243:
	cvttps2dq	%xmm6, %xmm6
.LVL249:
.LBE6243:
.LBE6242:
.LBB6244:
.LBB6245:
	cvttps2dq	%xmm5, %xmm5
.LVL250:
.LBE6245:
.LBE6244:
.LBB6246:
.LBB6247:
	cvttps2dq	%xmm3, %xmm3
.LVL251:
.LBE6247:
.LBE6246:
.LBB6248:
.LBB6249:
	.loc 3 953 0
	packssdw	%xmm6, %xmm4
.LVL252:
.LBE6249:
.LBE6248:
.LBB6250:
.LBB6251:
	packssdw	%xmm3, %xmm5
.LVL253:
.LBE6251:
.LBE6250:
	.loc 1 233 0
	imull	%ecx, %eax
.LBB6252:
.LBB6253:
	.loc 3 959 0
	packuswb	%xmm5, %xmm4
.LVL254:
.LBE6253:
.LBE6252:
	.loc 1 233 0
	subl	%r10d, %eax
.LVL255:
.LBB6254:
.LBB6255:
	.loc 6 200 0
	cmpl	$15, %eax
.LBE6255:
.LBE6254:
.LBB6257:
.LBB6258:
	.loc 3 710 0
	movaps	%xmm4, 32(%rsp)
.LBE6258:
.LBE6257:
.LBB6260:
.LBB6256:
	.loc 6 200 0
	jg	.L79
.LVL256:
.LBE6256:
.LBE6260:
	.loc 1 235 0
	testl	%eax, %eax
	jg	.L80
.LVL257:
.L89:
.LBE6263:
	.loc 1 200 0
	movl	84(%rbx), %eax
	addl	$16, %r10d
.LVL258:
	addq	$64, %rdx
.LVL259:
	addq	$16, %r11
	movl	%eax, %esi
	imull	%ecx, %esi
	cmpl	%r10d, %esi
	jg	.L110
.LVL260:
.L81:
	addl	$1, %r14d
.LVL261:
	addq	$1, %r15
	cmpl	8(%rsp), %r14d
	jl	.L76
	movl	16(%rsp), %edi
	movl	20(%rsp), %edx
.LVL262:
	movl	24(%rsp), %esi
	addl	%edi, %edx
	movl	%edi, %r14d
.LVL263:
	cmpl	%esi, %edx
	cmovg	%esi, %edx
	movl	%edx, 8(%rsp)
	movl	%edi, %edx
	movl	28(%rsp), %edi
	addl	%edi, %edx
	movl	%edx, 16(%rsp)
	subl	%edi, %edx
	cmpl	%edx, %esi
	jg	.L77
.L74:
	call	GOMP_barrier
.LVL264:
.LBE6274:
.LBE6156:
.LBE6155:
.LBE6154:
	.loc 1 120 0
	movq	56(%rsp), %rax
	xorq	%fs:40, %rax
	jne	.L121
	addq	$72, %rsp
	.cfi_remember_state
	.cfi_def_cfa_offset 56
	popq	%rbx
	.cfi_def_cfa_offset 48
.LVL265:
	popq	%rbp
	.cfi_def_cfa_offset 40
.LVL266:
	popq	%r12
	.cfi_def_cfa_offset 32
	popq	%r13
	.cfi_def_cfa_offset 24
	popq	%r14
	.cfi_def_cfa_offset 16
	popq	%r15
	.cfi_def_cfa_offset 8
	ret
.LVL267:
	.p2align 4,,10
	.p2align 3
.L79:
	.cfi_restore_state
.LBB6278:
.LBB6277:
.LBB6276:
.LBB6275:
.LBB6264:
.LBB6261:
.LBB6259:
	.loc 3 710 0
	movl	$16, %eax
.LVL268:
.L94:
.LBE6259:
.LBE6261:
.LBB6262:
.LBB6161:
	.loc 5 53 0 discriminator 1
	cmpl	$8, %eax
	movl	%eax, %ecx
	jnb	.L83
	testb	$4, %al
	jne	.L122
	testl	%ecx, %ecx
	je	.L84
	movzbl	(%r12), %eax
	testb	$2, %cl
	movb	%al, (%r11)
	jne	.L123
.L119:
	movl	96(%rbx), %r13d
.L84:
	movl	%r13d, %ecx
	jmp	.L89
	.p2align 4,,10
	.p2align 3
.L83:
	movq	(%r12), %rcx
	movq	%r12, %rdi
	movq	%rcx, (%r11)
	movl	%eax, %ecx
	movq	-8(%r12,%rcx), %rsi
	movq	%rsi, -8(%r11,%rcx)
	leaq	8(%r11), %rsi
	movq	%r11, %rcx
	andq	$-8, %rsi
	subq	%rsi, %rcx
	subq	%rcx, %rdi
	addl	%eax, %ecx
	andl	$-8, %ecx
	cmpl	$8, %ecx
	jb	.L119
	andl	$-8, %ecx
	xorl	%eax, %eax
.L87:
	movl	%eax, %r8d
	addl	$8, %eax
	movq	(%rdi,%r8), %r9
	cmpl	%ecx, %eax
	movq	%r9, (%rsi,%r8)
	jb	.L87
	jmp	.L119
.L122:
	movl	(%r12), %eax
	movl	%eax, (%r11)
	movl	-4(%r12,%rcx), %eax
	movl	%eax, -4(%r11,%rcx)
	movl	96(%rbx), %r13d
	jmp	.L84
.LVL269:
.L80:
	cltq
	jmp	.L94
.LVL270:
.L123:
	movzwl	-2(%r12,%rcx), %eax
	movw	%ax, -2(%r11,%rcx)
	movl	96(%rbx), %r13d
	jmp	.L84
.LVL271:
.L121:
.LBE6161:
.LBE6262:
.LBE6264:
.LBE6275:
.LBE6276:
.LBE6277:
.LBE6278:
	.loc 1 120 0
	call	__stack_chk_fail
.LVL272:
	.cfi_endproc
.LFE12400:
	.size	_Z12gaussianBlurIN2cv3VecIhLi2EEENS1_IfLi2EEELi2EEvRKNS0_3MatERS4_NS0_5Size_IiEEdd._omp_fn.1, .-_Z12gaussianBlurIN2cv3VecIhLi2EEENS1_IfLi2EEELi2EEvRKNS0_3MatERS4_NS0_5Size_IiEEdd._omp_fn.1
	.section	.text.unlikely._Z12gaussianBlurIN2cv3VecIhLi2EEENS1_IfLi2EEELi2EEvRKNS0_3MatERS4_NS0_5Size_IiEEdd._omp_fn.1,"axG",@progbits,_Z12gaussianBlurIN2cv3VecIhLi2EEENS1_IfLi2EEELi2EEvRKNS0_3MatERS4_NS0_5Size_IiEEdd,comdat
.LCOLDE1:
	.section	.text._Z12gaussianBlurIN2cv3VecIhLi2EEENS1_IfLi2EEELi2EEvRKNS0_3MatERS4_NS0_5Size_IiEEdd._omp_fn.1,"axG",@progbits,_Z12gaussianBlurIN2cv3VecIhLi2EEENS1_IfLi2EEELi2EEvRKNS0_3MatERS4_NS0_5Size_IiEEdd,comdat
.LHOTE1:
	.section	.text.unlikely._Z12gaussianBlurIhfLi1EEvRKN2cv3MatERS1_NS0_5Size_IiEEdd._omp_fn.2,"axG",@progbits,_Z12gaussianBlurIhfLi1EEvRKN2cv3MatERS1_NS0_5Size_IiEEdd,comdat
.LCOLDB2:
	.section	.text._Z12gaussianBlurIhfLi1EEvRKN2cv3MatERS1_NS0_5Size_IiEEdd._omp_fn.2,"axG",@progbits,_Z12gaussianBlurIhfLi1EEvRKN2cv3MatERS1_NS0_5Size_IiEEdd,comdat
.LHOTB2:
	.p2align 4,,15
	.type	_Z12gaussianBlurIhfLi1EEvRKN2cv3MatERS1_NS0_5Size_IiEEdd._omp_fn.2, @function
_Z12gaussianBlurIhfLi1EEvRKN2cv3MatERS1_NS0_5Size_IiEEdd._omp_fn.2:
.LFB12401:
	.loc 1 120 0
	.cfi_startproc
	.cfi_personality 0x3,__gxx_personality_v0
.LVL273:
	pushq	%r15
	.cfi_def_cfa_offset 16
	.cfi_offset 15, -16
	pushq	%r14
	.cfi_def_cfa_offset 24
	.cfi_offset 14, -24
	pushq	%r13
	.cfi_def_cfa_offset 32
	.cfi_offset 13, -32
	pushq	%r12
	.cfi_def_cfa_offset 40
	.cfi_offset 12, -40
	pushq	%rbp
	.cfi_def_cfa_offset 48
	.cfi_offset 6, -48
	pushq	%rbx
	.cfi_def_cfa_offset 56
	.cfi_offset 3, -56
	movq	%rdi, %rbx
	subq	$72, %rsp
	.cfi_def_cfa_offset 128
.LBB6279:
	.loc 1 125 0
	movl	80(%rdi), %r14d
.LBE6279:
	.loc 1 120 0
	movq	40(%rdi), %r12
.LVL274:
	movq	%fs:40, %rax
	movq	%rax, 56(%rsp)
	xorl	%eax, %eax
	movq	32(%rdi), %rbp
.LVL275:
.LBB6410:
	.loc 1 125 0
	leal	3(%r14), %ecx
	testl	%r14d, %r14d
	cmovns	%r14d, %ecx
	sarl	$2, %ecx
	movl	%ecx, 8(%rsp)
	call	omp_get_num_threads
.LVL276:
	movl	%eax, %r15d
	movl	%eax, 20(%rsp)
	call	omp_get_thread_num
.LVL277:
	movl	8(%rsp), %ecx
	movl	%eax, %r10d
	movl	%eax, 16(%rsp)
	imull	%ecx, %r10d
	leal	(%rcx,%r10), %r13d
	cmpl	%r14d, %r13d
	cmovg	%r14d, %r13d
	cmpl	%r10d, %r14d
	jle	.L125
	movl	%r15d, %edi
	movl	%eax, %r11d
	movl	96(%rbx), %edx
	imull	%ecx, %edi
	movl	84(%rbx), %eax
	movl	%edi, 24(%rsp)
	movl	%r15d, %edi
	addl	%r11d, %edi
	movl	%edi, %esi
	movl	%edi, %r15d
	addl	$1, %esi
	imull	%ecx, %r15d
	imull	%esi, %ecx
	subl	%r15d, %ecx
	movl	%ecx, 28(%rsp)
.L128:
	movslq	%r10d, %r11
.L127:
.LVL278:
.LBB6280:
.LBB6281:
	.loc 1 128 0
	movq	48(%rbx), %rdi
.LVL279:
	movq	%r11, %rsi
.LBB6282:
.LBB6283:
	.loc 2 430 0
	movl	76(%rbx), %r8d
.LBE6283:
.LBE6282:
.LBB6286:
	.loc 1 133 0
	xorl	%r9d, %r9d
.LBE6286:
.LBB6405:
.LBB6406:
	.loc 2 430 0
	movq	72(%rdi), %rcx
.LBE6406:
.LBE6405:
.LBB6407:
.LBB6284:
	addl	%r10d, %r8d
	movslq	%r8d, %r8
.LBE6284:
.LBE6407:
	.loc 1 128 0
	imulq	(%rcx), %rsi
	movslq	72(%rbx), %rcx
	addq	%rcx, %rsi
	addq	16(%rdi), %rsi
.LVL280:
	.loc 1 129 0
	movq	56(%rbx), %rdi
.LVL281:
.LBB6408:
.LBB6285:
	.loc 2 430 0
	movq	72(%rdi), %rcx
	imulq	(%rcx), %r8
.LVL282:
.LBE6285:
.LBE6408:
.LBB6409:
	.loc 1 133 0
	movl	%edx, %ecx
	imull	%eax, %ecx
	addq	16(%rdi), %r8
.LVL283:
	testl	%ecx, %ecx
	jle	.L130
.LVL284:
	.p2align 4,,10
	.p2align 3
.L167:
.LBB6287:
.LBB6288:
.LBB6289:
	.loc 3 698 0
	movdqu	(%rsi), %xmm0
.LBE6289:
.LBE6288:
.LBB6290:
.LBB6291:
.LBB6292:
.LBB6293:
	.loc 4 884 0
	movss	(%r12), %xmm6
.LVL285:
	leaq	4(%r12), %rcx
.LBE6293:
.LBE6292:
.LBE6291:
.LBE6290:
.LBB6294:
	.loc 1 149 0
	movq	16(%rbx), %rdi
	movl	$1, %edx
.LBE6294:
	.loc 1 138 0
	movdqa	(%rbx), %xmm5
.LBB6358:
.LBB6359:
	.loc 3 965 0
	movdqa	%xmm0, %xmm7
.LBE6359:
.LBE6358:
.LBB6361:
.LBB6362:
	.loc 4 743 0
	shufps	$0, %xmm6, %xmm6
.LVL286:
.LBE6362:
.LBE6361:
.LBB6363:
.LBB6360:
	.loc 3 965 0
	punpckhbw	%xmm5, %xmm7
.LVL287:
.LBE6360:
.LBE6363:
.LBB6364:
	.loc 1 149 0
	cmpl	$1, (%rdi)
.LBE6364:
.LBB6365:
.LBB6366:
	.loc 3 989 0
	punpcklbw	%xmm5, %xmm0
.LVL288:
.LBE6366:
.LBE6365:
.LBB6367:
.LBB6368:
	.loc 3 995 0
	movdqa	%xmm7, %xmm8
.LBE6368:
.LBE6367:
.LBB6370:
.LBB6371:
	.loc 3 971 0
	movdqa	%xmm0, %xmm9
.LBE6371:
.LBE6370:
.LBB6373:
.LBB6374:
	punpckhwd	%xmm5, %xmm7
.LVL289:
.LBE6374:
.LBE6373:
.LBB6375:
.LBB6376:
	.loc 3 995 0
	punpcklwd	%xmm5, %xmm0
.LVL290:
.LBE6376:
.LBE6375:
.LBB6377:
.LBB6372:
	.loc 3 971 0
	punpckhwd	%xmm5, %xmm9
.LVL291:
.LBE6372:
.LBE6377:
.LBB6378:
.LBB6369:
	.loc 3 995 0
	punpcklwd	%xmm5, %xmm8
.LVL292:
.LBE6369:
.LBE6378:
.LBB6379:
.LBB6380:
	.loc 3 767 0
	cvtdq2ps	%xmm7, %xmm7
.LVL293:
.LBE6380:
.LBE6379:
.LBB6381:
.LBB6382:
	cvtdq2ps	%xmm0, %xmm0
.LVL294:
.LBE6382:
.LBE6381:
.LBB6383:
.LBB6384:
	.loc 4 195 0
	mulps	%xmm6, %xmm7
.LVL295:
.LBE6384:
.LBE6383:
.LBB6385:
.LBB6386:
	.loc 3 767 0
	cvtdq2ps	%xmm9, %xmm9
.LVL296:
.LBE6386:
.LBE6385:
.LBB6387:
.LBB6388:
	cvtdq2ps	%xmm8, %xmm8
.LVL297:
.LBE6388:
.LBE6387:
.LBB6389:
.LBB6390:
	.loc 4 195 0
	mulps	%xmm6, %xmm9
.LBE6390:
.LBE6389:
.LBB6391:
.LBB6392:
	mulps	%xmm6, %xmm8
.LVL298:
.LBE6392:
.LBE6391:
.LBB6393:
.LBB6394:
	mulps	%xmm0, %xmm6
.LVL299:
.LBE6394:
.LBE6393:
.LBB6395:
	.loc 1 149 0
	jle	.L132
	movq	%r8, 8(%rsp)
.LVL300:
	.p2align 4,,10
	.p2align 3
.L168:
.LBB6295:
	.loc 1 152 0 discriminator 2
	movl	96(%rbx), %eax
.LBB6296:
.LBB6297:
	.loc 3 698 0 discriminator 2
	movq	%rsi, %r8
.LBE6297:
.LBE6296:
.LBB6300:
.LBB6301:
.LBB6302:
.LBB6303:
	.loc 4 884 0 discriminator 2
	movss	(%rcx), %xmm0
.LVL301:
	addq	$4, %rcx
.LBE6303:
.LBE6302:
.LBE6301:
.LBE6300:
.LBB6304:
.LBB6305:
	.loc 4 743 0 discriminator 2
	shufps	$0, %xmm0, %xmm0
.LVL302:
.LBE6305:
.LBE6304:
	.loc 1 152 0 discriminator 2
	imull	%edx, %eax
.LBE6295:
	.loc 1 149 0 discriminator 2
	addl	$1, %edx
.LVL303:
.LBB6356:
	.loc 1 152 0 discriminator 2
	cltq
.LVL304:
.LBB6306:
.LBB6298:
	.loc 3 698 0 discriminator 2
	subq	%rax, %r8
.LVL305:
.LBE6298:
.LBE6306:
.LBB6307:
.LBB6308:
	movdqu	(%rsi,%rax), %xmm3
.LVL306:
.LBE6308:
.LBE6307:
.LBE6356:
	.loc 1 149 0 discriminator 2
	cmpl	%edx, (%rdi)
.LBB6357:
.LBB6309:
.LBB6299:
	.loc 3 698 0 discriminator 2
	movdqu	(%r8), %xmm4
.LVL307:
.LBE6299:
.LBE6309:
.LBB6310:
.LBB6311:
	.loc 3 965 0 discriminator 2
	movdqa	%xmm3, %xmm1
.LBE6311:
.LBE6310:
.LBB6313:
.LBB6314:
	.loc 3 989 0 discriminator 2
	punpcklbw	%xmm5, %xmm3
.LVL308:
.LBE6314:
.LBE6313:
.LBB6315:
.LBB6316:
	.loc 3 965 0 discriminator 2
	movdqa	%xmm4, %xmm2
.LBE6316:
.LBE6315:
.LBB6318:
.LBB6312:
	punpckhbw	%xmm5, %xmm1
.LVL309:
.LBE6312:
.LBE6318:
.LBB6319:
.LBB6320:
	.loc 3 989 0 discriminator 2
	punpcklbw	%xmm5, %xmm4
.LVL310:
.LBE6320:
.LBE6319:
.LBB6321:
.LBB6317:
	.loc 3 965 0 discriminator 2
	punpckhbw	%xmm5, %xmm2
.LVL311:
.LBE6317:
.LBE6321:
.LBB6322:
.LBB6323:
	.loc 3 971 0 discriminator 2
	paddw	%xmm4, %xmm3
	movdqa	%xmm3, %xmm4
.LVL312:
.LBE6323:
.LBE6322:
.LBB6325:
.LBB6326:
	.loc 3 995 0 discriminator 2
	paddw	%xmm2, %xmm1
	movdqa	%xmm1, %xmm2
.LVL313:
.LBE6326:
.LBE6325:
.LBB6328:
.LBB6329:
	.loc 3 971 0 discriminator 2
	punpckhwd	%xmm5, %xmm1
.LBE6329:
.LBE6328:
.LBB6330:
.LBB6324:
	punpckhwd	%xmm5, %xmm4
.LVL314:
.LBE6324:
.LBE6330:
.LBB6331:
.LBB6327:
	.loc 3 995 0 discriminator 2
	punpcklwd	%xmm5, %xmm2
.LBE6327:
.LBE6331:
.LBB6332:
.LBB6333:
	.loc 3 767 0 discriminator 2
	cvtdq2ps	%xmm1, %xmm1
.LBE6333:
.LBE6332:
.LBB6334:
.LBB6335:
	.loc 4 183 0 discriminator 2
	mulps	%xmm0, %xmm1
.LBE6335:
.LBE6334:
.LBB6337:
.LBB6338:
	.loc 3 995 0 discriminator 2
	punpcklwd	%xmm5, %xmm3
.LVL315:
.LBE6338:
.LBE6337:
.LBB6339:
.LBB6336:
	.loc 4 183 0 discriminator 2
	addps	%xmm1, %xmm7
.LVL316:
.LBE6336:
.LBE6339:
.LBB6340:
.LBB6341:
	.loc 3 767 0 discriminator 2
	cvtdq2ps	%xmm2, %xmm1
.LVL317:
.LBE6341:
.LBE6340:
.LBB6342:
.LBB6343:
	cvtdq2ps	%xmm3, %xmm3
.LVL318:
.LBE6343:
.LBE6342:
.LBB6344:
.LBB6345:
	.loc 4 183 0 discriminator 2
	mulps	%xmm0, %xmm1
	addps	%xmm1, %xmm8
.LVL319:
.LBE6345:
.LBE6344:
.LBB6346:
.LBB6347:
	.loc 3 767 0 discriminator 2
	cvtdq2ps	%xmm4, %xmm1
.LVL320:
.LBE6347:
.LBE6346:
.LBB6348:
.LBB6349:
	.loc 4 183 0 discriminator 2
	mulps	%xmm0, %xmm1
.LBE6349:
.LBE6348:
.LBB6351:
.LBB6352:
	mulps	%xmm3, %xmm0
.LVL321:
.LBE6352:
.LBE6351:
.LBB6354:
.LBB6350:
	addps	%xmm1, %xmm9
.LVL322:
.LBE6350:
.LBE6354:
.LBB6355:
.LBB6353:
	addps	%xmm0, %xmm6
.LVL323:
.LBE6353:
.LBE6355:
.LBE6357:
	.loc 1 149 0 discriminator 2
	jg	.L168
	movq	8(%rsp), %r8
.LVL324:
.L132:
.LBE6395:
.LBB6396:
.LBB6397:
	.loc 4 980 0
	movups	%xmm6, (%r8)
.LVL325:
.LBE6397:
.LBE6396:
.LBE6287:
	.loc 1 133 0
	addl	$16, %r9d
.LVL326:
	addq	$16, %rsi
.LVL327:
	addq	$64, %r8
.LVL328:
.LBB6404:
.LBB6398:
.LBB6399:
	.loc 4 980 0
	movups	%xmm9, -48(%r8)
.LVL329:
.LBE6399:
.LBE6398:
.LBB6400:
.LBB6401:
	movups	%xmm8, -32(%r8)
.LVL330:
.LBE6401:
.LBE6400:
.LBB6402:
.LBB6403:
	movups	%xmm7, -16(%r8)
.LVL331:
.LBE6403:
.LBE6402:
.LBE6404:
	.loc 1 133 0
	movl	96(%rbx), %edx
	movl	84(%rbx), %eax
	movl	%edx, %ecx
	imull	%eax, %ecx
	cmpl	%r9d, %ecx
	jg	.L167
.LVL332:
.L130:
	addl	$1, %r10d
.LVL333:
	addq	$1, %r11
	cmpl	%r13d, %r10d
	jl	.L127
	movl	28(%rsp), %edi
	movl	%r15d, %r10d
.LVL334:
	leal	(%r15,%rdi), %r13d
	movl	24(%rsp), %edi
	cmpl	%r14d, %r13d
	cmovg	%r14d, %r13d
	addl	%edi, %r15d
	movl	%r15d, %ecx
	subl	%edi, %ecx
	cmpl	%ecx, %r14d
	jg	.L128
.LVL335:
.L125:
	call	GOMP_barrier
.LVL336:
.LBE6409:
.LBE6281:
.LBE6280:
.LBE6410:
.LBB6411:
	.loc 1 179 0
	movl	16(%rsp), %eax
	testl	%eax, %eax
	jne	.L153
.LBB6412:
	.loc 1 180 0
	movq	56(%rbx), %rdx
	.loc 1 181 0
	movslq	76(%rbx), %r14
	movl	92(%rbx), %eax
	movq	16(%rdx), %r15
.LVL337:
.LBB6413:
.LBB6414:
	.loc 2 430 0
	movq	72(%rdx), %rdx
.LVL338:
.LBE6414:
.LBE6413:
	.loc 1 181 0
	subl	%r14d, %eax
.LVL339:
	movq	%r14, %rcx
.LBB6419:
.LBB6415:
	.loc 2 430 0
	movslq	%eax, %r12
.LVL340:
.LBE6415:
.LBE6419:
.LBB6420:
.LBB6421:
	subl	$1, %eax
.LVL341:
.LBE6421:
.LBE6420:
.LBB6426:
.LBB6416:
	movq	(%rdx), %rdx
.LBE6416:
.LBE6426:
.LBB6427:
.LBB6422:
	cltq
.LBE6422:
.LBE6427:
.LBB6428:
.LBB6417:
	imulq	%rdx, %r12
.LBE6417:
.LBE6428:
.LBB6429:
.LBB6430:
	imulq	%rdx, %r14
.LBE6430:
.LBE6429:
.LBB6432:
.LBB6423:
	imulq	%rdx, %rax
.LVL342:
.LBE6423:
.LBE6432:
.LBB6433:
.LBB6418:
	addq	%r15, %r12
.LVL343:
.LBE6418:
.LBE6433:
.LBB6434:
.LBB6431:
	addq	%r15, %r14
.LVL344:
.LBE6431:
.LBE6434:
.LBB6435:
.LBB6424:
	addq	%r15, %rax
.LBE6424:
.LBE6435:
.LBB6436:
	.loc 1 184 0
	testl	%ecx, %ecx
.LBE6436:
.LBB6443:
.LBB6425:
	.loc 2 430 0
	movq	%rax, 8(%rsp)
.LVL345:
.LBE6425:
.LBE6443:
.LBB6444:
	.loc 1 184 0
	jle	.L153
	movslq	84(%rbx), %rax
	xorl	%r13d, %r13d
.LVL346:
.L154:
.LBB6437:
.LBB6438:
	.loc 5 53 0 discriminator 2
	leaq	0(,%rax,4), %rdx
	movq	%r15, %rdi
	movq	%r14, %rsi
.LBE6438:
.LBE6437:
	.loc 1 184 0 discriminator 2
	addl	$1, %r13d
.LVL347:
.LBB6440:
.LBB6439:
	.loc 5 53 0 discriminator 2
	call	memcpy
.LVL348:
.LBE6439:
.LBE6440:
.LBB6441:
.LBB6442:
	movslq	84(%rbx), %rdx
	movq	8(%rsp), %rsi
	movq	%r12, %rdi
	salq	$2, %rdx
.LVL349:
	call	memcpy
.LVL350:
.LBE6442:
.LBE6441:
	.loc 1 184 0 discriminator 2
	movslq	84(%rbx), %rax
	leaq	0(,%rax,4), %rdx
	addq	%rdx, %r15
.LVL351:
	addq	%rdx, %r12
.LVL352:
	cmpl	%r13d, 76(%rbx)
	jg	.L154
.LVL353:
.L153:
.LBE6444:
.LBE6412:
.LBE6411:
.LBB6445:
	.loc 1 192 0
	movl	80(%rbx), %eax
	movl	16(%rsp), %r15d
	leal	3(%rax), %edx
	testl	%eax, %eax
	movl	%r15d, %r14d
	movl	%eax, %edi
	movl	%eax, 24(%rsp)
	cmovns	%eax, %edx
	sarl	$2, %edx
	imull	%edx, %r14d
	leal	(%rdx,%r14), %eax
	cmpl	%edi, %eax
	movl	%eax, %esi
	cmovg	%edi, %esi
	cmpl	%r14d, %edi
	movl	%esi, 8(%rsp)
	jle	.L135
	movl	20(%rsp), %esi
	movl	96(%rbx), %r13d
.LBB6446:
.LBB6447:
.LBB6448:
.LBB6449:
.LBB6450:
.LBB6451:
	.loc 5 53 0
	leaq	32(%rsp), %r12
	movl	84(%rbx), %eax
	movl	%esi, %edi
	movl	%r13d, %ecx
	imull	%edx, %edi
	movl	%edi, 28(%rsp)
	movl	%esi, %edi
	addl	%r15d, %edi
	movl	%edi, %esi
	addl	$1, %esi
	imull	%edx, %edi
	imull	%esi, %edx
	movl	%edi, 16(%rsp)
	subl	%edi, %edx
	movl	%edx, 20(%rsp)
.L138:
	movslq	%r14d, %r15
.L137:
.LVL354:
.LBE6451:
.LBE6450:
.LBE6449:
.LBE6448:
	.loc 1 195 0
	movq	56(%rbx), %rsi
.LVL355:
.LBB6556:
.LBB6557:
	.loc 2 430 0
	movl	76(%rbx), %edx
.LBE6557:
.LBE6556:
.LBB6559:
.LBB6560:
	movq	%r15, %r11
.LBE6560:
.LBE6559:
.LBB6562:
	.loc 1 200 0
	xorl	%r10d, %r10d
.LBE6562:
.LBB6563:
.LBB6558:
	.loc 2 430 0
	movq	72(%rsi), %rdi
	addl	%r14d, %edx
.LVL356:
	movslq	%edx, %rdx
	imulq	(%rdi), %rdx
.LVL357:
	addq	16(%rsi), %rdx
.LVL358:
.LBE6558:
.LBE6563:
	.loc 1 196 0
	movq	64(%rbx), %rsi
.LVL359:
.LBB6564:
.LBB6561:
	.loc 2 430 0
	movq	72(%rsi), %rdi
	imulq	(%rdi), %r11
.LVL360:
.LBE6561:
.LBE6564:
.LBB6565:
	.loc 1 200 0
	movl	%ecx, %edi
	imull	%eax, %edi
	addq	16(%rsi), %r11
.LVL361:
	testl	%edi, %edi
	jle	.L142
.LVL362:
	.p2align 4,,10
	.p2align 3
.L171:
.LBB6554:
.LBB6453:
	.loc 1 213 0
	movq	24(%rbx), %r8
.LBE6453:
.LBB6506:
.LBB6507:
.LBB6508:
.LBB6509:
	.loc 4 884 0
	movss	0(%rbp), %xmm3
.LVL363:
	leaq	4(%rbp), %rdi
.LBE6509:
.LBE6508:
.LBE6507:
.LBE6506:
.LBB6510:
.LBB6511:
	.loc 4 931 0
	movups	(%rdx), %xmm4
.LBE6511:
.LBE6510:
.LBB6512:
	.loc 1 213 0
	movl	$1, %esi
.LBE6512:
.LBB6513:
.LBB6514:
	.loc 4 743 0
	shufps	$0, %xmm3, %xmm3
.LVL364:
.LBE6514:
.LBE6513:
.LBB6515:
	.loc 1 213 0
	cmpl	$1, (%r8)
.LBE6515:
.LBB6516:
.LBB6517:
	.loc 4 931 0
	movups	16(%rdx), %xmm6
.LVL365:
.LBE6517:
.LBE6516:
.LBB6518:
.LBB6519:
	.loc 4 195 0
	mulps	%xmm3, %xmm4
.LVL366:
.LBE6519:
.LBE6518:
.LBB6520:
.LBB6521:
	.loc 4 931 0
	movups	32(%rdx), %xmm5
.LVL367:
.LBE6521:
.LBE6520:
.LBB6522:
.LBB6523:
	.loc 4 195 0
	mulps	%xmm3, %xmm6
.LVL368:
.LBE6523:
.LBE6522:
.LBB6524:
.LBB6525:
	.loc 4 931 0
	movups	48(%rdx), %xmm0
.LVL369:
.LBE6525:
.LBE6524:
.LBB6526:
.LBB6527:
	.loc 4 195 0
	mulps	%xmm3, %xmm5
.LVL370:
.LBE6527:
.LBE6526:
.LBB6528:
.LBB6529:
	mulps	%xmm0, %xmm3
.LVL371:
.LBE6529:
.LBE6528:
.LBB6530:
	.loc 1 213 0
	jle	.L151
.LVL372:
	.p2align 4,,10
	.p2align 3
.L169:
.LBB6454:
.LBB6455:
	.loc 4 931 0 discriminator 2
	movl	84(%rbx), %eax
.LBE6455:
.LBE6454:
.LBB6461:
.LBB6462:
.LBB6463:
.LBB6464:
	.loc 4 884 0 discriminator 2
	movss	(%rdi), %xmm0
.LVL373:
.LBE6464:
.LBE6463:
.LBE6462:
.LBE6461:
.LBB6465:
.LBB6456:
	.loc 4 931 0 discriminator 2
	movq	%rdx, %r9
	addq	$4, %rdi
.LBE6456:
.LBE6465:
.LBB6466:
.LBB6467:
	.loc 4 743 0 discriminator 2
	movaps	%xmm0, %xmm2
.LBE6467:
.LBE6466:
.LBB6469:
.LBB6457:
	.loc 4 931 0 discriminator 2
	imull	%esi, %eax
.LBE6457:
.LBE6469:
	.loc 1 213 0 discriminator 2
	addl	$1, %esi
.LVL374:
.LBB6470:
.LBB6458:
	.loc 4 931 0 discriminator 2
	imull	96(%rbx), %eax
.LBE6458:
.LBE6470:
.LBB6471:
.LBB6468:
	.loc 4 743 0 discriminator 2
	shufps	$0, %xmm0, %xmm2
.LVL375:
.LBE6468:
.LBE6471:
.LBB6472:
.LBB6459:
	.loc 4 931 0 discriminator 2
	cltq
	leaq	0(,%rax,4), %rcx
	subq	%rcx, %r9
.LBE6459:
.LBE6472:
.LBB6473:
.LBB6474:
	movups	(%rdx,%rcx), %xmm0
.LBE6474:
.LBE6473:
.LBB6475:
.LBB6476:
	movq	%rax, %rcx
.LBE6476:
.LBE6475:
.LBB6479:
.LBB6460:
	movups	(%r9), %xmm1
.LVL376:
.LBE6460:
.LBE6479:
.LBB6480:
.LBB6477:
	negq	%rcx
	salq	$2, %rcx
.LBE6477:
.LBE6480:
	.loc 1 213 0 discriminator 2
	cmpl	%esi, (%r8)
.LBB6481:
.LBB6482:
	.loc 4 183 0 discriminator 2
	addps	%xmm1, %xmm0
.LBE6482:
.LBE6481:
.LBB6484:
.LBB6478:
	.loc 4 931 0 discriminator 2
	movups	16(%rdx,%rcx), %xmm1
.LBE6478:
.LBE6484:
.LBB6485:
.LBB6483:
	.loc 4 183 0 discriminator 2
	mulps	%xmm2, %xmm0
	addps	%xmm0, %xmm4
.LVL377:
.LBE6483:
.LBE6485:
.LBB6486:
.LBB6487:
	.loc 4 931 0 discriminator 2
	movups	16(%rdx,%rax,4), %xmm0
.LVL378:
.LBE6487:
.LBE6486:
.LBB6488:
.LBB6489:
	.loc 4 183 0 discriminator 2
	addps	%xmm1, %xmm0
.LBE6489:
.LBE6488:
.LBB6491:
.LBB6492:
	.loc 4 931 0 discriminator 2
	movups	32(%rdx,%rcx), %xmm1
.LBE6492:
.LBE6491:
.LBB6493:
.LBB6490:
	.loc 4 183 0 discriminator 2
	mulps	%xmm2, %xmm0
	addps	%xmm0, %xmm6
.LVL379:
.LBE6490:
.LBE6493:
.LBB6494:
.LBB6495:
	.loc 4 931 0 discriminator 2
	movups	32(%rdx,%rax,4), %xmm0
.LVL380:
.LBE6495:
.LBE6494:
.LBB6496:
.LBB6497:
	.loc 4 183 0 discriminator 2
	addps	%xmm1, %xmm0
.LBE6497:
.LBE6496:
.LBB6499:
.LBB6500:
	.loc 4 931 0 discriminator 2
	movups	48(%rdx,%rax,4), %xmm1
.LBE6500:
.LBE6499:
.LBB6501:
.LBB6498:
	.loc 4 183 0 discriminator 2
	mulps	%xmm2, %xmm0
	addps	%xmm0, %xmm5
.LVL381:
.LBE6498:
.LBE6501:
.LBB6502:
.LBB6503:
	.loc 4 931 0 discriminator 2
	movups	48(%rdx,%rcx), %xmm0
.LVL382:
.LBE6503:
.LBE6502:
.LBB6504:
.LBB6505:
	.loc 4 183 0 discriminator 2
	addps	%xmm1, %xmm0
	mulps	%xmm2, %xmm0
	addps	%xmm0, %xmm3
.LVL383:
.LBE6505:
.LBE6504:
	.loc 1 213 0 discriminator 2
	jg	.L169
.LVL384:
.L151:
.LBE6530:
	.loc 1 233 0
	movl	96(%rbx), %ecx
	movl	88(%rbx), %eax
.LBB6531:
.LBB6532:
	.loc 3 815 0
	cvttps2dq	%xmm4, %xmm4
.LVL385:
.LBE6532:
.LBE6531:
.LBB6533:
.LBB6534:
	cvttps2dq	%xmm6, %xmm6
.LVL386:
.LBE6534:
.LBE6533:
.LBB6535:
.LBB6536:
	cvttps2dq	%xmm5, %xmm5
.LVL387:
.LBE6536:
.LBE6535:
.LBB6537:
.LBB6538:
	cvttps2dq	%xmm3, %xmm3
.LVL388:
.LBE6538:
.LBE6537:
.LBB6539:
.LBB6540:
	.loc 3 953 0
	packssdw	%xmm6, %xmm4
.LVL389:
.LBE6540:
.LBE6539:
.LBB6541:
.LBB6542:
	packssdw	%xmm3, %xmm5
.LVL390:
.LBE6542:
.LBE6541:
	.loc 1 233 0
	imull	%ecx, %eax
.LBB6543:
.LBB6544:
	.loc 3 959 0
	packuswb	%xmm5, %xmm4
.LVL391:
.LBE6544:
.LBE6543:
	.loc 1 233 0
	subl	%r10d, %eax
.LVL392:
.LBB6545:
.LBB6546:
	.loc 6 200 0
	cmpl	$15, %eax
.LBE6546:
.LBE6545:
.LBB6548:
.LBB6549:
	.loc 3 710 0
	movaps	%xmm4, 32(%rsp)
.LBE6549:
.LBE6548:
.LBB6551:
.LBB6547:
	.loc 6 200 0
	jg	.L140
.LVL393:
.LBE6547:
.LBE6551:
	.loc 1 235 0
	testl	%eax, %eax
	jg	.L141
.LVL394:
.L150:
.LBE6554:
	.loc 1 200 0
	movl	84(%rbx), %eax
	addl	$16, %r10d
.LVL395:
	addq	$64, %rdx
.LVL396:
	addq	$16, %r11
	movl	%eax, %esi
	imull	%ecx, %esi
	cmpl	%r10d, %esi
	jg	.L171
.LVL397:
.L142:
	addl	$1, %r14d
.LVL398:
	addq	$1, %r15
	cmpl	8(%rsp), %r14d
	jl	.L137
	movl	16(%rsp), %edi
	movl	20(%rsp), %edx
.LVL399:
	movl	24(%rsp), %esi
	addl	%edi, %edx
	movl	%edi, %r14d
.LVL400:
	cmpl	%esi, %edx
	cmovg	%esi, %edx
	movl	%edx, 8(%rsp)
	movl	%edi, %edx
	movl	28(%rsp), %edi
	addl	%edi, %edx
	movl	%edx, 16(%rsp)
	subl	%edi, %edx
	cmpl	%edx, %esi
	jg	.L138
.L135:
	call	GOMP_barrier
.LVL401:
.LBE6565:
.LBE6447:
.LBE6446:
.LBE6445:
	.loc 1 120 0
	movq	56(%rsp), %rax
	xorq	%fs:40, %rax
	jne	.L182
	addq	$72, %rsp
	.cfi_remember_state
	.cfi_def_cfa_offset 56
	popq	%rbx
	.cfi_def_cfa_offset 48
.LVL402:
	popq	%rbp
	.cfi_def_cfa_offset 40
.LVL403:
	popq	%r12
	.cfi_def_cfa_offset 32
	popq	%r13
	.cfi_def_cfa_offset 24
	popq	%r14
	.cfi_def_cfa_offset 16
	popq	%r15
	.cfi_def_cfa_offset 8
	ret
.LVL404:
	.p2align 4,,10
	.p2align 3
.L140:
	.cfi_restore_state
.LBB6569:
.LBB6568:
.LBB6567:
.LBB6566:
.LBB6555:
.LBB6552:
.LBB6550:
	.loc 3 710 0
	movl	$16, %eax
.LVL405:
.L155:
.LBE6550:
.LBE6552:
.LBB6553:
.LBB6452:
	.loc 5 53 0 discriminator 1
	cmpl	$8, %eax
	movl	%eax, %ecx
	jnb	.L144
	testb	$4, %al
	jne	.L183
	testl	%ecx, %ecx
	je	.L145
	movzbl	(%r12), %eax
	testb	$2, %cl
	movb	%al, (%r11)
	jne	.L184
.L180:
	movl	96(%rbx), %r13d
.L145:
	movl	%r13d, %ecx
	jmp	.L150
	.p2align 4,,10
	.p2align 3
.L144:
	movq	(%r12), %rcx
	movq	%r12, %rdi
	movq	%rcx, (%r11)
	movl	%eax, %ecx
	movq	-8(%r12,%rcx), %rsi
	movq	%rsi, -8(%r11,%rcx)
	leaq	8(%r11), %rsi
	movq	%r11, %rcx
	andq	$-8, %rsi
	subq	%rsi, %rcx
	subq	%rcx, %rdi
	addl	%eax, %ecx
	andl	$-8, %ecx
	cmpl	$8, %ecx
	jb	.L180
	andl	$-8, %ecx
	xorl	%eax, %eax
.L148:
	movl	%eax, %r8d
	addl	$8, %eax
	movq	(%rdi,%r8), %r9
	cmpl	%ecx, %eax
	movq	%r9, (%rsi,%r8)
	jb	.L148
	jmp	.L180
.L183:
	movl	(%r12), %eax
	movl	%eax, (%r11)
	movl	-4(%r12,%rcx), %eax
	movl	%eax, -4(%r11,%rcx)
	movl	96(%rbx), %r13d
	jmp	.L145
.LVL406:
.L141:
	cltq
	jmp	.L155
.LVL407:
.L184:
	movzwl	-2(%r12,%rcx), %eax
	movw	%ax, -2(%r11,%rcx)
	movl	96(%rbx), %r13d
	jmp	.L145
.LVL408:
.L182:
.LBE6452:
.LBE6553:
.LBE6555:
.LBE6566:
.LBE6567:
.LBE6568:
.LBE6569:
	.loc 1 120 0
	call	__stack_chk_fail
.LVL409:
	.cfi_endproc
.LFE12401:
	.size	_Z12gaussianBlurIhfLi1EEvRKN2cv3MatERS1_NS0_5Size_IiEEdd._omp_fn.2, .-_Z12gaussianBlurIhfLi1EEvRKN2cv3MatERS1_NS0_5Size_IiEEdd._omp_fn.2
	.section	.text.unlikely._Z12gaussianBlurIhfLi1EEvRKN2cv3MatERS1_NS0_5Size_IiEEdd._omp_fn.2,"axG",@progbits,_Z12gaussianBlurIhfLi1EEvRKN2cv3MatERS1_NS0_5Size_IiEEdd,comdat
.LCOLDE2:
	.section	.text._Z12gaussianBlurIhfLi1EEvRKN2cv3MatERS1_NS0_5Size_IiEEdd._omp_fn.2,"axG",@progbits,_Z12gaussianBlurIhfLi1EEvRKN2cv3MatERS1_NS0_5Size_IiEEdd,comdat
.LHOTE2:
	.section	.text.unlikely._ZN15fastGaussianIIR6apply_IhfLi1EEEvRKN2cv3MatERS2_._omp_fn.3,"axG",@progbits,_ZN15fastGaussianIIR6apply_IhfLi1EEEvRKN2cv3MatERS2_,comdat
.LCOLDB3:
	.section	.text._ZN15fastGaussianIIR6apply_IhfLi1EEEvRKN2cv3MatERS2_._omp_fn.3,"axG",@progbits,_ZN15fastGaussianIIR6apply_IhfLi1EEEvRKN2cv3MatERS2_,comdat
.LHOTB3:
	.p2align 4,,15
	.type	_ZN15fastGaussianIIR6apply_IhfLi1EEEvRKN2cv3MatERS2_._omp_fn.3, @function
_ZN15fastGaussianIIR6apply_IhfLi1EEEvRKN2cv3MatERS2_._omp_fn.3:
.LFB12402:
	.loc 1 392 0
	.cfi_startproc
	.cfi_personality 0x3,__gxx_personality_v0
.LVL410:
	pushq	%rbp
	.cfi_def_cfa_offset 16
	.cfi_offset 6, -16
	movl	$1, %ecx
	movq	%rsp, %rbp
	.cfi_def_cfa_register 6
	pushq	%r15
	pushq	%r14
	pushq	%r13
	pushq	%r12
	leaq	-64(%rbp), %r9
	pushq	%rbx
	leaq	-72(%rbp), %r8
	subq	$216, %rsp
	.cfi_offset 15, -24
	.cfi_offset 14, -32
	.cfi_offset 13, -40
	.cfi_offset 12, -48
	.cfi_offset 3, -56
	movslq	76(%rdi), %rsi
	.loc 1 392 0
	movq	16(%rdi), %r14
	movq	%fs:40, %rax
	movq	%rax, -56(%rbp)
	xorl	%eax, %eax
	movq	24(%rdi), %rax
	movq	%rdi, -88(%rbp)
	movq	%rax, -232(%rbp)
.LVL411:
	movslq	80(%rdi), %rax
.LVL412:
	xorl	%edi, %edi
.LVL413:
	movq	%rax, %rdx
	movl	%eax, -96(%rbp)
.LVL414:
	movq	%rax, %rbx
	movq	%rax, -248(%rbp)
	call	GOMP_loop_dynamic_start
.LVL415:
	testb	%al, %al
	movq	-88(%rbp), %r10
	je	.L186
	movq	%rbx, %rax
	movq	%r14, %r13
	salq	$2, %rax
	movq	%rax, -240(%rbp)
	leaq	96(%r14), %rax
	movq	%r10, %r14
.LVL416:
	movq	%rax, -224(%rbp)
.LVL417:
.L190:
	movq	-72(%rbp), %rax
	movl	-64(%rbp), %ebx
	movq	%r14, %r15
	movq	%r13, %r14
	movl	%eax, -172(%rbp)
.LVL418:
	movl	%eax, -176(%rbp)
	cltq
.LVL419:
	movq	%rax, -192(%rbp)
	salq	$2, %rax
	movl	%ebx, -216(%rbp)
	movq	%rax, -184(%rbp)
.L189:
.LVL420:
.LBB6570:
.LBB6571:
.LBB6572:
	.loc 1 399 0
	movl	72(%r15), %r9d
	movq	-232(%rbp), %rax
	xorl	%esi, %esi
	addq	-184(%rbp), %rax
	movq	$0, -104(%rbp)
	testl	%r9d, %r9d
	movq	%rax, -120(%rbp)
	jle	.L213
.LVL421:
	.p2align 4,,10
	.p2align 3
.L263:
.LBB6573:
	.loc 1 400 0
	movq	32(%r15), %rax
	movq	-104(%rbp), %rbx
	movq	16(%rax), %rdi
.LVL422:
.LBB6574:
.LBB6575:
	.loc 2 436 0
	movq	72(%rax), %rax
.LVL423:
.LBE6575:
.LBE6574:
	.loc 1 400 0
	movq	%rbx, %r8
	imulq	(%rax), %r8
	movq	-192(%rbp), %rax
	addq	%rax, %r8
	addq	%rdi, %r8
.LVL424:
	.loc 1 401 0
	addq	%rax, %rdi
.LVL425:
	.loc 1 402 0
	movq	48(%r15), %rax
.LVL426:
.LBB6576:
.LBB6577:
	.loc 2 430 0
	movq	72(%rax), %rdx
.LBE6577:
.LBE6576:
	.loc 1 402 0
	imulq	(%rdx), %rbx
	movq	%rbx, %rdx
	addq	-184(%rbp), %rdx
	addq	16(%rax), %rdx
.LVL427:
.LBB6578:
	.loc 1 405 0
	movl	-96(%rbp), %eax
.LVL428:
	testl	%eax, %eax
	jle	.L210
	movl	76(%r15), %eax
	leal	-15(%rax), %ecx
	cmpl	%ecx, -172(%rbp)
	jge	.L282
	leaq	80(%r14), %r13
	leaq	64(%r14), %r12
	movq	%r14, -112(%rbp)
	movq	-120(%rbp), %rbx
	movl	-176(%rbp), %r14d
	xorl	%r9d, %r9d
.LVL429:
	.p2align 4,,10
	.p2align 3
.L228:
	pxor	%xmm1, %xmm1
	movl	$1, %ecx
	movdqa	(%r15), %xmm5
	xorl	%eax, %eax
	movl	%r9d, -88(%rbp)
	movaps	%xmm1, %xmm7
	movaps	%xmm1, %xmm6
	movaps	%xmm1, %xmm8
.LVL430:
.L233:
.LBB6579:
.LBB6580:
.LBB6581:
	.loc 1 409 0
	cmpl	%eax, %esi
	movl	%eax, %r11d
.LVL431:
	jge	.L230
	movq	%rdi, %r10
.L235:
.LVL432:
.LBB6582:
.LBB6583:
	.loc 3 698 0 discriminator 4
	movdqu	(%r10), %xmm2
.LBE6583:
.LBE6582:
.LBB6584:
.LBB6585:
.LBB6586:
.LBB6587:
	.loc 4 884 0 discriminator 4
	movss	0(%r13,%rax,4), %xmm0
.LVL433:
.LBE6587:
.LBE6586:
.LBE6585:
.LBE6584:
	.loc 1 424 0 discriminator 4
	cmpl	%r11d, %esi
.LBB6588:
.LBB6589:
	.loc 3 965 0 discriminator 4
	movdqa	%xmm2, %xmm3
.LBE6589:
.LBE6588:
.LBB6591:
.LBB6592:
	.loc 4 743 0 discriminator 4
	shufps	$0, %xmm0, %xmm0
.LVL434:
.LBE6592:
.LBE6591:
.LBB6593:
.LBB6590:
	.loc 3 965 0 discriminator 4
	punpckhbw	%xmm5, %xmm3
.LVL435:
.LBE6590:
.LBE6593:
.LBB6594:
.LBB6595:
	.loc 3 989 0 discriminator 4
	punpcklbw	%xmm5, %xmm2
.LVL436:
.LBE6595:
.LBE6594:
.LBB6596:
.LBB6597:
	.loc 3 995 0 discriminator 4
	movdqa	%xmm3, %xmm9
.LBE6597:
.LBE6596:
.LBB6599:
.LBB6600:
	.loc 3 971 0 discriminator 4
	punpckhwd	%xmm5, %xmm3
.LVL437:
.LBE6600:
.LBE6599:
.LBB6601:
.LBB6602:
	movdqa	%xmm2, %xmm4
.LBE6602:
.LBE6601:
.LBB6604:
.LBB6598:
	.loc 3 995 0 discriminator 4
	punpcklwd	%xmm5, %xmm9
.LBE6598:
.LBE6604:
.LBB6605:
.LBB6603:
	.loc 3 971 0 discriminator 4
	punpckhwd	%xmm5, %xmm4
.LVL438:
.LBE6603:
.LBE6605:
.LBB6606:
.LBB6607:
	.loc 3 767 0 discriminator 4
	cvtdq2ps	%xmm3, %xmm3
.LBE6607:
.LBE6606:
.LBB6608:
.LBB6609:
	.loc 4 183 0 discriminator 4
	mulps	%xmm0, %xmm3
.LBE6609:
.LBE6608:
.LBB6611:
.LBB6612:
	.loc 3 995 0 discriminator 4
	punpcklwd	%xmm5, %xmm2
.LVL439:
.LBE6612:
.LBE6611:
.LBB6613:
.LBB6614:
	.loc 3 767 0 discriminator 4
	cvtdq2ps	%xmm4, %xmm4
.LVL440:
.LBE6614:
.LBE6613:
.LBB6615:
.LBB6616:
	.loc 4 183 0 discriminator 4
	mulps	%xmm0, %xmm4
.LBE6616:
.LBE6615:
.LBB6618:
.LBB6610:
	addps	%xmm3, %xmm8
.LVL441:
.LBE6610:
.LBE6618:
.LBB6619:
.LBB6620:
	.loc 3 767 0 discriminator 4
	cvtdq2ps	%xmm2, %xmm2
.LVL442:
.LBE6620:
.LBE6619:
.LBB6621:
.LBB6622:
	cvtdq2ps	%xmm9, %xmm3
.LVL443:
.LBE6622:
.LBE6621:
.LBB6623:
.LBB6624:
	.loc 4 183 0 discriminator 4
	mulps	%xmm0, %xmm3
.LBE6624:
.LBE6623:
.LBB6626:
.LBB6627:
	mulps	%xmm2, %xmm0
.LVL444:
.LBE6627:
.LBE6626:
.LBB6629:
.LBB6617:
	addps	%xmm4, %xmm7
.LVL445:
.LBE6617:
.LBE6629:
.LBB6630:
.LBB6625:
	addps	%xmm3, %xmm6
.LVL446:
.LBE6625:
.LBE6630:
.LBB6631:
.LBB6628:
	addps	%xmm0, %xmm1
.LVL447:
.LBE6628:
.LBE6631:
	.loc 1 424 0 discriminator 4
	jg	.L231
	movq	%rbx, %r10
.LVL448:
.L234:
.LBB6632:
.LBB6633:
.LBB6634:
.LBB6635:
	.loc 4 884 0 discriminator 4
	movss	(%r12,%rax,4), %xmm0
.LVL449:
.LBE6635:
.LBE6634:
.LBE6633:
.LBE6632:
.LBB6636:
.LBB6637:
	.loc 4 931 0 discriminator 4
	movups	48(%r10), %xmm9
.LVL450:
	addq	$1, %rax
.LVL451:
	addl	$1, %ecx
.LBE6637:
.LBE6636:
.LBB6638:
.LBB6639:
	.loc 4 743 0 discriminator 4
	shufps	$0, %xmm0, %xmm0
.LVL452:
.LBE6639:
.LBE6638:
.LBB6640:
.LBB6641:
	.loc 4 931 0 discriminator 4
	movups	32(%r10), %xmm4
.LVL453:
.LBE6641:
.LBE6640:
.LBE6581:
	.loc 1 408 0 discriminator 4
	cmpq	$4, %rax
.LBB6662:
.LBB6642:
.LBB6643:
	.loc 4 931 0 discriminator 4
	movups	16(%r10), %xmm3
.LVL454:
.LBE6643:
.LBE6642:
.LBB6644:
.LBB6645:
	.loc 4 189 0 discriminator 4
	mulps	%xmm0, %xmm9
.LVL455:
.LBE6645:
.LBE6644:
.LBB6647:
.LBB6648:
	.loc 4 931 0 discriminator 4
	movups	(%r10), %xmm2
.LVL456:
.LBE6648:
.LBE6647:
.LBB6649:
.LBB6650:
	.loc 4 189 0 discriminator 4
	mulps	%xmm0, %xmm4
.LVL457:
.LBE6650:
.LBE6649:
.LBB6652:
.LBB6653:
	mulps	%xmm0, %xmm3
.LVL458:
.LBE6653:
.LBE6652:
.LBB6655:
.LBB6646:
	subps	%xmm9, %xmm8
.LVL459:
.LBE6646:
.LBE6655:
.LBB6656:
.LBB6657:
	mulps	%xmm2, %xmm0
.LVL460:
.LBE6657:
.LBE6656:
.LBB6659:
.LBB6651:
	subps	%xmm4, %xmm6
.LVL461:
.LBE6651:
.LBE6659:
.LBB6660:
.LBB6654:
	subps	%xmm3, %xmm7
.LVL462:
.LBE6654:
.LBE6660:
.LBB6661:
.LBB6658:
	subps	%xmm0, %xmm1
.LVL463:
.LBE6658:
.LBE6661:
.LBE6662:
	.loc 1 408 0 discriminator 4
	jne	.L233
	movl	-88(%rbp), %r9d
.LVL464:
.LBE6580:
.LBE6579:
	.loc 1 405 0
	addq	$16, %r8
.LVL465:
	addq	$16, %rdi
.LVL466:
.LBB6673:
.LBB6664:
.LBB6665:
	.loc 4 980 0
	movups	%xmm1, (%rdx)
.LVL467:
.LBE6665:
.LBE6664:
.LBE6673:
	.loc 1 405 0
	addq	$64, %rbx
.LVL468:
	addq	$64, %rdx
.LVL469:
.LBB6674:
.LBB6666:
.LBB6667:
	.loc 4 980 0
	movups	%xmm7, -48(%rdx)
.LVL470:
.LBE6667:
.LBE6666:
.LBE6674:
	.loc 1 405 0
	addl	$16, %r9d
.LBB6675:
.LBB6668:
.LBB6669:
	.loc 4 980 0
	movups	%xmm6, -32(%rdx)
.LVL471:
.LBE6669:
.LBE6668:
.LBB6670:
.LBB6671:
	movups	%xmm8, -16(%rdx)
.LVL472:
.LBE6671:
.LBE6670:
.LBE6675:
	.loc 1 405 0
	cmpl	%r9d, -96(%rbp)
	jle	.L283
	.loc 1 405 0 is_stmt 0 discriminator 1
	movl	76(%r15), %eax
	leal	(%r9,%r14), %ecx
	leal	-15(%rax), %r10d
.LVL473:
	cmpl	%ecx, %r10d
	jg	.L228
	movq	-112(%rbp), %r14
.LVL474:
.L211:
.LBE6578:
.LBB6677:
	.loc 1 442 0 is_stmt 1
	cmpl	%ecx, %eax
	jle	.L277
.LBB6678:
	.loc 1 450 0 discriminator 1
	movslq	%eax, %rbx
	.loc 1 445 0 discriminator 1
	leal	(%rax,%rax), %ecx
	movq	%r15, -112(%rbp)
	.loc 1 450 0 discriminator 1
	leaq	0(,%rbx,4), %r10
	.loc 1 445 0 discriminator 1
	movq	%rbx, -88(%rbp)
	movl	-176(%rbp), %r15d
	movslq	%ecx, %r12
	addl	%eax, %ecx
	movl	-96(%rbp), %ebx
	.loc 1 450 0 discriminator 1
	negq	%r10
	.loc 1 445 0 discriminator 1
	movslq	%ecx, %r13
	jmp	.L254
.LVL475:
	.p2align 4,,10
	.p2align 3
.L284:
	.loc 1 445 0 is_stmt 0
	movzbl	(%r8), %ecx
	pxor	%xmm0, %xmm0
	cvtsi2ss	%ecx, %xmm0
	mulss	80(%r14), %xmm0
	addss	(%rdx), %xmm0
	movss	%xmm0, (%rdx)
	.loc 1 449 0 is_stmt 1
	je	.L218
	.loc 1 450 0
	leaq	(%rdx,%r10), %rcx
	movss	64(%r14), %xmm1
	.loc 1 445 0
	movq	%r8, %r11
	subq	-88(%rbp), %r11
	.loc 1 449 0
	cmpl	$1, %esi
	.loc 1 450 0
	mulss	(%rcx), %xmm1
	subss	%xmm1, %xmm0
	.loc 1 445 0
	pxor	%xmm1, %xmm1
	.loc 1 450 0
	movss	%xmm0, (%rdx)
.LVL476:
	.loc 1 445 0
	movzbl	(%r11), %r11d
	cvtsi2ss	%r11d, %xmm1
	mulss	84(%r14), %xmm1
	addss	%xmm1, %xmm0
	movss	%xmm0, (%rdx)
	.loc 1 449 0
	je	.L220
	.loc 1 450 0
	movss	68(%r14), %xmm1
	addq	%r10, %rcx
	.loc 1 445 0
	movq	%r8, %r11
	.loc 1 450 0
	mulss	(%rcx), %xmm1
	.loc 1 445 0
	subq	%r12, %r11
	.loc 1 449 0
	cmpl	$2, %esi
	.loc 1 450 0
	subss	%xmm1, %xmm0
	.loc 1 445 0
	pxor	%xmm1, %xmm1
	.loc 1 450 0
	movss	%xmm0, (%rdx)
.LVL477:
	.loc 1 445 0
	movzbl	(%r11), %r11d
	cvtsi2ss	%r11d, %xmm1
	mulss	88(%r14), %xmm1
	addss	%xmm1, %xmm0
	movss	%xmm0, (%rdx)
	.loc 1 449 0
	je	.L222
	.loc 1 450 0
	movss	72(%r14), %xmm1
	.loc 1 445 0
	movq	%r8, %r11
	.loc 1 450 0
	mulss	(%rcx,%r10), %xmm1
	.loc 1 445 0
	subq	%r13, %r11
	.loc 1 449 0
	cmpl	$3, %esi
	.loc 1 450 0
	subss	%xmm1, %xmm0
	.loc 1 445 0
	pxor	%xmm1, %xmm1
	.loc 1 450 0
	movss	%xmm0, (%rdx)
.LVL478:
	.loc 1 445 0
	movzbl	(%r11), %r11d
	cvtsi2ss	%r11d, %xmm1
	mulss	92(%r14), %xmm1
	addss	%xmm1, %xmm0
	movss	%xmm0, (%rdx)
	.loc 1 449 0
	je	.L224
	.loc 1 450 0
	movss	(%rcx,%r10,2), %xmm1
	mulss	76(%r14), %xmm1
	subss	%xmm1, %xmm0
.L225:
.LBE6678:
	.loc 1 442 0
	addl	$1, %r9d
.LVL479:
	movss	%xmm0, (%rdx)
.LVL480:
	addq	$1, %r8
.LVL481:
	addq	$1, %rdi
.LVL482:
	addq	$4, %rdx
.LVL483:
	cmpl	%r9d, %ebx
	jle	.L278
	.loc 1 442 0 is_stmt 0 discriminator 1
	leal	(%r9,%r15), %ecx
	cmpl	%ecx, %eax
	jle	.L278
.LVL484:
.L254:
.LBB6679:
	.loc 1 444 0 is_stmt 1 discriminator 1
	testl	%esi, %esi
	jns	.L284
	.loc 1 447 0
	movzbl	(%rdi), %ecx
	pxor	%xmm0, %xmm0
	cvtsi2ss	%ecx, %xmm0
	mulss	80(%r14), %xmm0
	addss	(%rdx), %xmm0
	movss	%xmm0, (%rdx)
.L218:
	.loc 1 452 0
	movzbl	(%rdi), %ecx
	pxor	%xmm1, %xmm1
	cvtsi2ss	%ecx, %xmm1
	mulss	64(%r14), %xmm1
	subss	%xmm1, %xmm0
	.loc 1 447 0
	pxor	%xmm1, %xmm1
	.loc 1 452 0
	movss	%xmm0, (%rdx)
.LVL485:
	.loc 1 447 0
	movzbl	(%rdi), %ecx
	cvtsi2ss	%ecx, %xmm1
	mulss	84(%r14), %xmm1
	addss	%xmm1, %xmm0
	movss	%xmm0, (%rdx)
.L220:
	.loc 1 452 0
	movzbl	(%rdi), %ecx
	pxor	%xmm1, %xmm1
	cvtsi2ss	%ecx, %xmm1
	mulss	68(%r14), %xmm1
	subss	%xmm1, %xmm0
	.loc 1 447 0
	pxor	%xmm1, %xmm1
	.loc 1 452 0
	movss	%xmm0, (%rdx)
.LVL486:
	.loc 1 447 0
	movzbl	(%rdi), %ecx
	cvtsi2ss	%ecx, %xmm1
	mulss	88(%r14), %xmm1
	addss	%xmm1, %xmm0
	movss	%xmm0, (%rdx)
.L222:
	.loc 1 452 0
	movzbl	(%rdi), %ecx
	pxor	%xmm1, %xmm1
	cvtsi2ss	%ecx, %xmm1
	mulss	72(%r14), %xmm1
	subss	%xmm1, %xmm0
	.loc 1 447 0
	pxor	%xmm1, %xmm1
	.loc 1 452 0
	movss	%xmm0, (%rdx)
.LVL487:
	.loc 1 447 0
	movzbl	(%rdi), %ecx
	cvtsi2ss	%ecx, %xmm1
	mulss	92(%r14), %xmm1
	addss	%xmm1, %xmm0
	movss	%xmm0, (%rdx)
.L224:
	.loc 1 452 0
	movzbl	(%rdi), %ecx
	pxor	%xmm1, %xmm1
	cvtsi2ss	%ecx, %xmm1
	mulss	76(%r14), %xmm1
	subss	%xmm1, %xmm0
	jmp	.L225
.LVL488:
	.p2align 4,,10
	.p2align 3
.L231:
.LBE6679:
.LBE6677:
.LBB6680:
.LBB6676:
.LBB6672:
.LBB6663:
	.loc 1 424 0 discriminator 1
	movl	76(%r15), %r10d
.LVL489:
	movq	%rdx, %r11
	imull	%ecx, %r10d
	movslq	%r10d, %r10
	salq	$2, %r10
	subq	%r10, %r11
	movq	%r11, %r10
	jmp	.L234
.LVL490:
	.p2align 4,,10
	.p2align 3
.L230:
	.loc 1 409 0 discriminator 1
	movl	76(%r15), %r10d
	movq	%r8, %r9
	imull	%eax, %r10d
	movslq	%r10d, %r10
	subq	%r10, %r9
	movq	%r9, %r10
	jmp	.L235
.LVL491:
	.p2align 4,,10
	.p2align 3
.L283:
	movq	-112(%rbp), %r14
.LVL492:
.L277:
	movl	72(%r15), %r9d
.LVL493:
.L210:
.LBE6663:
.LBE6672:
.LBE6676:
.LBE6680:
.LBE6573:
	.loc 1 399 0 discriminator 2
	addl	$1, %esi
.LVL494:
	addq	$1, -104(%rbp)
	cmpl	%r9d, %esi
	jl	.L263
.LVL495:
.L213:
.LBE6572:
.LBB6683:
	.loc 1 457 0
	leal	-1(%r9), %edx
	movslq	%edx, %rax
	testl	%edx, %edx
	movl	%edx, %ebx
.LVL496:
	movq	%rax, -200(%rbp)
	js	.L194
	movl	-96(%rbp), %r12d
	movl	-176(%rbp), %r10d
	movq	%rax, %r8
.LVL497:
	.p2align 4,,10
	.p2align 3
.L264:
.LBB6684:
	.loc 1 458 0
	movq	32(%r15), %rax
	movq	%r8, %rsi
	.loc 1 459 0
	movslq	%edx, %rdx
	.loc 1 458 0
	movq	-192(%rbp), %rcx
	.loc 1 460 0
	movq	-184(%rbp), %r11
	movq	16(%rax), %rdi
.LVL498:
.LBB6685:
.LBB6686:
	.loc 2 436 0
	movq	72(%rax), %rax
.LVL499:
	movq	(%rax), %rax
.LVL500:
.LBE6686:
.LBE6685:
	.loc 1 459 0
	imulq	%rax, %rdx
	.loc 1 458 0
	imulq	%rax, %rsi
	addq	%rcx, %rsi
	.loc 1 459 0
	addq	%rdx, %rcx
	.loc 1 460 0
	movq	64(%r15), %rdx
	.loc 1 458 0
	addq	%rdi, %rsi
.LVL501:
	.loc 1 459 0
	addq	%rdi, %rcx
.LVL502:
	.loc 1 460 0
	movq	%r8, %rdi
.LBB6687:
.LBB6688:
	.loc 2 430 0
	movq	72(%rdx), %rax
.LBE6688:
.LBE6687:
	.loc 1 460 0
	imulq	(%rax), %rdi
	movq	%rdi, %rax
	.loc 1 461 0
	movq	48(%r15), %rdi
	.loc 1 460 0
	addq	%r11, %rax
	addq	16(%rdx), %rax
.LVL503:
.LBB6689:
.LBB6690:
	.loc 2 430 0
	movq	72(%rdi), %rdx
.LBE6690:
.LBE6689:
	.loc 1 461 0
	imulq	(%rdx), %r8
	movq	%r8, %rdx
	addq	%r11, %rdx
	addq	16(%rdi), %rdx
.LVL504:
.LBB6691:
	.loc 1 463 0
	testl	%r12d, %r12d
	jle	.L191
	movl	76(%r15), %r8d
	leal	-15(%r8), %edi
.LVL505:
	cmpl	%edi, -172(%rbp)
	jge	.L248
	movq	-224(%rbp), %r13
	xorl	%edi, %edi
.LVL506:
	.p2align 4,,10
	.p2align 3
.L193:
	xorl	%r8d, %r8d
	pxor	%xmm0, %xmm0
.LBB6692:
.LBB6693:
.LBB6694:
	.loc 1 467 0
	addl	$1, %r8d
	movq	%r13, %r11
	subl	%r8d, %r9d
	movdqa	(%r15), %xmm4
.LVL507:
	cmpl	%ebx, %r9d
.LBE6694:
.LBE6693:
.LBE6692:
	.loc 1 463 0
	movaps	%xmm0, %xmm7
.LVL508:
	movaps	%xmm0, %xmm6
.LVL509:
	movaps	%xmm0, %xmm3
.LVL510:
.LBB6860:
.LBB6827:
.LBB6823:
	.loc 1 467 0
	jg	.L208
.LVL511:
.L285:
.LBB6695:
	.loc 1 496 0
	movss	(%r11), %xmm1
	addq	$4, %r11
.LBB6696:
.LBB6697:
	.loc 3 698 0
	movdqu	(%rcx), %xmm2
.LBE6697:
.LBE6696:
	.loc 1 496 0
	subss	-36(%r11), %xmm1
.LVL512:
.LBE6695:
.LBE6823:
	.loc 1 466 0
	cmpl	$4, %r8d
.LBB6824:
.LBB6738:
.LBB6698:
.LBB6699:
	.loc 3 965 0
	movdqa	%xmm2, %xmm5
.LBE6699:
.LBE6698:
.LBB6701:
.LBB6702:
	.loc 3 989 0
	punpcklbw	%xmm4, %xmm2
.LBE6702:
.LBE6701:
.LBB6703:
.LBB6700:
	.loc 3 965 0
	punpckhbw	%xmm4, %xmm5
.LBE6700:
.LBE6703:
.LBB6704:
.LBB6705:
	.loc 3 971 0
	movdqa	%xmm2, %xmm8
.LBE6705:
.LBE6704:
.LBB6707:
.LBB6708:
	.loc 3 995 0
	punpcklwd	%xmm4, %xmm2
.LBE6708:
.LBE6707:
.LBB6709:
.LBB6710:
	.loc 4 891 0
	shufps	$0, %xmm1, %xmm1
.LVL513:
.LBE6710:
.LBE6709:
.LBB6711:
.LBB6712:
	.loc 3 995 0
	movdqa	%xmm5, %xmm9
.LBE6712:
.LBE6711:
.LBB6714:
.LBB6715:
	.loc 3 971 0
	punpckhwd	%xmm4, %xmm5
.LVL514:
.LBE6715:
.LBE6714:
.LBB6716:
.LBB6717:
	.loc 3 767 0
	cvtdq2ps	%xmm2, %xmm2
.LBE6717:
.LBE6716:
.LBB6718:
.LBB6706:
	.loc 3 971 0
	punpckhwd	%xmm4, %xmm8
.LVL515:
.LBE6706:
.LBE6718:
.LBB6719:
.LBB6713:
	.loc 3 995 0
	punpcklwd	%xmm4, %xmm9
.LVL516:
.LBE6713:
.LBE6719:
.LBB6720:
.LBB6721:
	.loc 3 767 0
	cvtdq2ps	%xmm5, %xmm5
.LVL517:
.LBE6721:
.LBE6720:
.LBB6722:
.LBB6723:
	.loc 4 183 0
	mulps	%xmm1, %xmm5
	addps	%xmm5, %xmm3
.LVL518:
.LBE6723:
.LBE6722:
.LBB6724:
.LBB6725:
	.loc 3 767 0
	cvtdq2ps	%xmm9, %xmm5
.LVL519:
.LBE6725:
.LBE6724:
.LBB6726:
.LBB6727:
	.loc 4 183 0
	mulps	%xmm1, %xmm5
	addps	%xmm5, %xmm6
.LVL520:
.LBE6727:
.LBE6726:
.LBB6728:
.LBB6729:
	.loc 3 767 0
	cvtdq2ps	%xmm8, %xmm5
.LVL521:
.LBE6729:
.LBE6728:
.LBB6730:
.LBB6731:
	.loc 4 183 0
	mulps	%xmm1, %xmm5
.LBE6731:
.LBE6730:
.LBB6733:
.LBB6734:
	mulps	%xmm2, %xmm1
.LBE6734:
.LBE6733:
.LBB6736:
.LBB6732:
	addps	%xmm5, %xmm7
.LVL522:
.LBE6732:
.LBE6736:
.LBB6737:
.LBB6735:
	addps	%xmm1, %xmm0
.LVL523:
.LBE6735:
.LBE6737:
.LBE6738:
.LBE6824:
	.loc 1 466 0
	je	.L205
.LVL524:
.L286:
	movl	72(%r15), %r9d
.LBB6825:
	.loc 1 467 0
	addl	$1, %r8d
.LVL525:
	subl	%r8d, %r9d
	cmpl	%ebx, %r9d
	jle	.L285
.LVL526:
.L208:
.LBB6739:
.LBB6740:
.LBB6741:
	.loc 3 698 0
	movl	76(%r15), %r9d
.LBE6741:
.LBE6740:
.LBB6743:
.LBB6744:
.LBB6745:
.LBB6746:
	.loc 4 884 0
	movss	(%r11), %xmm1
.LVL527:
	addq	$4, %r11
.LBE6746:
.LBE6745:
.LBE6744:
.LBE6743:
.LBB6747:
.LBB6748:
	.loc 4 743 0
	shufps	$0, %xmm1, %xmm1
.LVL528:
.LBE6748:
.LBE6747:
.LBB6749:
.LBB6742:
	.loc 3 698 0
	imull	%r8d, %r9d
	movslq	%r9d, %r9
	movdqu	(%rsi,%r9), %xmm2
.LVL529:
.LBE6742:
.LBE6749:
.LBB6750:
.LBB6751:
	.loc 3 965 0
	movdqa	%xmm2, %xmm5
.LBE6751:
.LBE6750:
.LBB6753:
.LBB6754:
	.loc 3 989 0
	punpcklbw	%xmm4, %xmm2
.LVL530:
.LBE6754:
.LBE6753:
.LBB6755:
.LBB6752:
	.loc 3 965 0
	punpckhbw	%xmm4, %xmm5
.LVL531:
.LBE6752:
.LBE6755:
.LBB6756:
.LBB6757:
	.loc 3 971 0
	movdqa	%xmm2, %xmm8
.LBE6757:
.LBE6756:
.LBB6759:
.LBB6760:
	.loc 3 995 0
	movdqa	%xmm5, %xmm9
.LBE6760:
.LBE6759:
.LBB6762:
.LBB6763:
	.loc 3 971 0
	punpckhwd	%xmm4, %xmm5
.LVL532:
.LBE6763:
.LBE6762:
.LBB6764:
.LBB6758:
	punpckhwd	%xmm4, %xmm8
.LVL533:
.LBE6758:
.LBE6764:
.LBB6765:
.LBB6761:
	.loc 3 995 0
	punpcklwd	%xmm4, %xmm9
.LBE6761:
.LBE6765:
.LBB6766:
.LBB6767:
	.loc 3 767 0
	cvtdq2ps	%xmm5, %xmm5
.LBE6767:
.LBE6766:
.LBB6768:
.LBB6769:
	.loc 4 183 0
	mulps	%xmm1, %xmm5
.LBE6769:
.LBE6768:
.LBB6771:
.LBB6772:
	.loc 3 995 0
	punpcklwd	%xmm4, %xmm2
.LVL534:
.LBE6772:
.LBE6771:
.LBB6773:
.LBB6770:
	.loc 4 183 0
	addps	%xmm5, %xmm3
.LVL535:
.LBE6770:
.LBE6773:
.LBB6774:
.LBB6775:
	.loc 3 767 0
	cvtdq2ps	%xmm9, %xmm5
.LVL536:
.LBE6775:
.LBE6774:
.LBB6776:
.LBB6777:
	cvtdq2ps	%xmm2, %xmm2
.LVL537:
.LBE6777:
.LBE6776:
.LBB6778:
.LBB6779:
	.loc 4 183 0
	mulps	%xmm1, %xmm5
.LBE6779:
.LBE6778:
.LBB6781:
.LBB6782:
	.loc 4 931 0
	movups	48(%rax,%r9,4), %xmm9
.LVL538:
.LBE6782:
.LBE6781:
.LBB6783:
.LBB6780:
	.loc 4 183 0
	addps	%xmm5, %xmm6
.LVL539:
.LBE6780:
.LBE6783:
.LBB6784:
.LBB6785:
	.loc 3 767 0
	cvtdq2ps	%xmm8, %xmm5
.LVL540:
.LBE6785:
.LBE6784:
.LBB6786:
.LBB6787:
	.loc 4 183 0
	mulps	%xmm1, %xmm5
.LBE6787:
.LBE6786:
.LBB6789:
.LBB6790:
	.loc 4 931 0
	movups	32(%rax,%r9,4), %xmm8
.LVL541:
.LBE6790:
.LBE6789:
.LBB6791:
.LBB6792:
	.loc 4 183 0
	mulps	%xmm2, %xmm1
.LVL542:
.LBE6792:
.LBE6791:
.LBB6794:
.LBB6795:
	.loc 4 931 0
	movups	(%rax,%r9,4), %xmm2
.LBE6795:
.LBE6794:
.LBB6796:
.LBB6788:
	.loc 4 183 0
	addps	%xmm5, %xmm7
.LVL543:
.LBE6788:
.LBE6796:
.LBB6797:
.LBB6798:
	.loc 4 931 0
	movups	16(%rax,%r9,4), %xmm5
.LBE6798:
.LBE6797:
.LBB6799:
.LBB6793:
	.loc 4 183 0
	addps	%xmm1, %xmm0
.LVL544:
.LBE6793:
.LBE6799:
.LBB6800:
.LBB6801:
.LBB6802:
.LBB6803:
	.loc 4 884 0
	movss	-36(%r11), %xmm1
.LVL545:
.LBE6803:
.LBE6802:
.LBE6801:
.LBE6800:
.LBE6739:
.LBE6825:
	.loc 1 466 0
	cmpl	$4, %r8d
.LBB6826:
.LBB6822:
.LBB6804:
.LBB6805:
	.loc 4 743 0
	shufps	$0, %xmm1, %xmm1
.LVL546:
.LBE6805:
.LBE6804:
.LBB6806:
.LBB6807:
	.loc 4 189 0
	mulps	%xmm1, %xmm9
.LVL547:
.LBE6807:
.LBE6806:
.LBB6809:
.LBB6810:
	mulps	%xmm1, %xmm8
.LVL548:
.LBE6810:
.LBE6809:
.LBB6812:
.LBB6813:
	mulps	%xmm1, %xmm5
.LVL549:
.LBE6813:
.LBE6812:
.LBB6815:
.LBB6808:
	subps	%xmm9, %xmm3
.LBE6808:
.LBE6815:
.LBB6816:
.LBB6817:
	mulps	%xmm2, %xmm1
.LVL550:
.LBE6817:
.LBE6816:
.LBB6819:
.LBB6811:
	subps	%xmm8, %xmm6
.LBE6811:
.LBE6819:
.LBB6820:
.LBB6814:
	subps	%xmm5, %xmm7
.LBE6814:
.LBE6820:
.LBB6821:
.LBB6818:
	subps	%xmm1, %xmm0
.LVL551:
.LBE6818:
.LBE6821:
.LBE6822:
.LBE6826:
	.loc 1 466 0
	jne	.L286
.LVL552:
.L205:
.LBE6827:
.LBB6828:
.LBB6829:
	.loc 4 980 0
	movups	%xmm0, (%rax)
.LVL553:
.LBE6829:
.LBE6828:
.LBE6860:
	.loc 1 463 0
	addl	$16, %edi
.LVL554:
	addq	$16, %rsi
.LVL555:
	addq	$16, %rcx
.LVL556:
.LBB6861:
.LBB6830:
.LBB6831:
	.loc 4 980 0
	movups	%xmm7, 16(%rax)
.LVL557:
.LBE6831:
.LBE6830:
.LBE6861:
	.loc 1 463 0
	addq	$64, %rdx
.LVL558:
	addq	$64, %rax
.LVL559:
.LBB6862:
.LBB6832:
.LBB6833:
	.loc 4 980 0
	movups	%xmm6, -32(%rax)
.LVL560:
.LBE6833:
.LBE6832:
.LBB6834:
.LBB6835:
	movups	%xmm3, -16(%rax)
.LVL561:
.LBE6835:
.LBE6834:
.LBB6836:
.LBB6837:
	.loc 4 931 0
	movups	-16(%rdx), %xmm1
.LVL562:
.LBE6837:
.LBE6836:
.LBB6838:
.LBB6839:
	movups	-32(%rdx), %xmm2
.LVL563:
.LBE6839:
.LBE6838:
.LBB6840:
.LBB6841:
	.loc 4 980 0
	addps	%xmm1, %xmm3
.LBE6841:
.LBE6840:
.LBB6843:
.LBB6844:
	.loc 4 931 0
	movups	-48(%rdx), %xmm4
.LVL564:
.LBE6844:
.LBE6843:
.LBB6845:
.LBB6846:
	.loc 4 980 0
	addps	%xmm2, %xmm6
.LBE6846:
.LBE6845:
.LBB6848:
.LBB6849:
	.loc 4 931 0
	movups	-64(%rdx), %xmm5
.LVL565:
.LBE6849:
.LBE6848:
.LBB6850:
.LBB6851:
	.loc 4 980 0
	addps	%xmm4, %xmm7
.LBE6851:
.LBE6850:
.LBB6853:
.LBB6842:
	movups	%xmm3, -16(%rdx)
.LBE6842:
.LBE6853:
.LBB6854:
.LBB6855:
	addps	%xmm5, %xmm0
.LBE6855:
.LBE6854:
.LBB6857:
.LBB6847:
	movups	%xmm6, -32(%rdx)
.LBE6847:
.LBE6857:
.LBB6858:
.LBB6852:
	movups	%xmm7, -48(%rdx)
.LBE6852:
.LBE6858:
.LBB6859:
.LBB6856:
	movups	%xmm0, -64(%rdx)
.LVL566:
.LBE6856:
.LBE6859:
.LBE6862:
	.loc 1 463 0
	cmpl	%edi, %r12d
	jle	.L191
	leal	(%rdi,%r10), %r9d
	.loc 1 463 0 is_stmt 0 discriminator 1
	movl	76(%r15), %r8d
.LVL567:
	leal	-15(%r8), %r11d
	cmpl	%r9d, %r11d
	jle	.L192
	movl	72(%r15), %r9d
	jmp	.L193
.LVL568:
	.p2align 4,,10
	.p2align 3
.L273:
	movq	-208(%rbp), %r15
.LVL569:
.L191:
.LBE6691:
.LBE6684:
	.loc 1 457 0 is_stmt 1
	subl	$1, %ebx
.LVL570:
	subq	$1, -200(%rbp)
	cmpl	$-1, %ebx
	je	.L194
	movl	72(%r15), %r9d
	movq	-200(%rbp), %r8
	leal	-1(%r9), %edx
.LVL571:
	jmp	.L264
.LVL572:
.L248:
.LBB6870:
.LBB6863:
	.loc 1 463 0
	movl	-172(%rbp), %r9d
.LBE6863:
	.loc 1 462 0
	xorl	%edi, %edi
.LVL573:
	.p2align 4,,10
	.p2align 3
.L192:
.LBB6864:
	.loc 1 525 0
	cmpl	%r8d, %r9d
	jge	.L191
	movl	72(%r15), %r9d
	movq	%r15, -208(%rbp)
	movl	%r8d, -112(%rbp)
	leal	-1(%r9), %r11d
	leal	-2(%r9), %r13d
	movl	%r11d, -88(%rbp)
	leal	-3(%r9), %r11d
	movl	%r11d, -104(%rbp)
	leal	-4(%r9), %r11d
	movl	%r11d, -212(%rbp)
.LBB6865:
.LBB6866:
	.loc 1 528 0
	movslq	%r8d, %r11
	movl	-212(%rbp), %r15d
	leaq	0(,%r11,4), %r9
	movq	%r11, -120(%rbp)
	movq	%r9, -128(%rbp)
	leal	(%r8,%r8), %r9d
	movslq	%r9d, %r11
	addl	%r8d, %r9d
	movq	%r11, -136(%rbp)
	salq	$2, %r11
	movq	%r11, -144(%rbp)
	movslq	%r9d, %r11
	leaq	0(,%r11,4), %r9
	movq	%r11, -152(%rbp)
	leal	0(,%r8,4), %r11d
	movslq	%r11d, %r11
	movq	%r9, -160(%rbp)
	leaq	0(,%r11,4), %r9
	addq	%r11, %rsi
.LVL574:
	movq	%r9, -168(%rbp)
	jmp	.L245
.LVL575:
	.p2align 4,,10
	.p2align 3
.L287:
	movq	-120(%rbp), %r8
	movq	%rsi, %r9
	subq	%r11, %r9
	pxor	%xmm2, %xmm2
	movss	64(%r14), %xmm0
	.loc 1 527 0
	cmpl	%r13d, %ebx
	.loc 1 528 0
	movzbl	(%r9,%r8), %r9d
	movq	-128(%rbp), %r8
	movss	(%rax), %xmm3
	mulss	(%rax,%r8), %xmm0
	cvtsi2ss	%r9d, %xmm2
	mulss	96(%r14), %xmm2
	subss	%xmm0, %xmm2
	addss	%xmm2, %xmm3
	movss	%xmm3, (%rax)
.LVL576:
	.loc 1 527 0
	jge	.L198
.L288:
	.loc 1 528 0
	movq	-136(%rbp), %r8
	movq	%rsi, %r9
	subq	%r11, %r9
	pxor	%xmm1, %xmm1
	movss	68(%r14), %xmm0
	.loc 1 527 0
	cmpl	-104(%rbp), %ebx
	.loc 1 528 0
	movzbl	(%r9,%r8), %r9d
	movq	-144(%rbp), %r8
	mulss	(%rax,%r8), %xmm0
	cvtsi2ss	%r9d, %xmm1
	mulss	100(%r14), %xmm1
	subss	%xmm0, %xmm1
	movaps	%xmm1, %xmm2
	addss	%xmm3, %xmm2
	movss	%xmm2, (%rax)
.LVL577:
	.loc 1 527 0
	jge	.L200
.L289:
	.loc 1 528 0
	movq	-152(%rbp), %r8
	movq	%rsi, %r9
	subq	%r11, %r9
	pxor	%xmm0, %xmm0
	movss	72(%r14), %xmm1
	.loc 1 527 0
	cmpl	%r15d, %ebx
	.loc 1 528 0
	movzbl	(%r9,%r8), %r9d
	movq	-160(%rbp), %r8
	mulss	(%rax,%r8), %xmm1
	cvtsi2ss	%r9d, %xmm0
	mulss	104(%r14), %xmm0
	subss	%xmm1, %xmm0
	movaps	%xmm0, %xmm1
	addss	%xmm2, %xmm1
	movss	%xmm1, (%rax)
.LVL578:
	.loc 1 527 0
	jge	.L202
.L290:
	.loc 1 528 0
	movzbl	(%rsi), %r9d
	pxor	%xmm0, %xmm0
	movq	-168(%rbp), %r8
	movss	76(%r14), %xmm2
	cvtsi2ss	%r9d, %xmm0
	mulss	(%rax,%r8), %xmm2
	mulss	108(%r14), %xmm0
	subss	%xmm2, %xmm0
	addss	%xmm1, %xmm0
.L203:
	movss	%xmm0, (%rax)
.LVL579:
.LBE6866:
.LBE6865:
	.loc 1 525 0
	addl	$1, %edi
.LVL580:
	addq	$1, %rcx
.LVL581:
	addq	$4, %rax
.LVL582:
	addq	$4, %rdx
.LVL583:
.LBB6868:
	.loc 1 533 0
	addss	-4(%rdx), %xmm0
	movss	%xmm0, -4(%rdx)
.LVL584:
.LBE6868:
	.loc 1 525 0
	cmpl	%edi, %r12d
	jle	.L273
	addq	$1, %rsi
.LVL585:
	.loc 1 525 0 is_stmt 0 discriminator 1
	leal	(%rdi,%r10), %r9d
	cmpl	-112(%rbp), %r9d
	jge	.L273
.LVL586:
.L245:
.LBB6869:
.LBB6867:
	.loc 1 527 0 is_stmt 1 discriminator 1
	cmpl	-88(%rbp), %ebx
	jl	.L287
	.loc 1 530 0
	movzbl	(%rcx), %r9d
	pxor	%xmm0, %xmm0
	movss	96(%r14), %xmm2
	.loc 1 527 0
	cmpl	%r13d, %ebx
	.loc 1 530 0
	subss	64(%r14), %xmm2
	movss	(%rax), %xmm3
	cvtsi2ss	%r9d, %xmm0
	mulss	%xmm0, %xmm2
	addss	%xmm2, %xmm3
	movss	%xmm3, (%rax)
.LVL587:
	.loc 1 527 0
	jl	.L288
.L198:
	.loc 1 530 0
	movzbl	(%rcx), %r9d
	pxor	%xmm0, %xmm0
	movss	100(%r14), %xmm1
	subss	68(%r14), %xmm1
	.loc 1 527 0
	cmpl	-104(%rbp), %ebx
	.loc 1 530 0
	cvtsi2ss	%r9d, %xmm0
	mulss	%xmm0, %xmm1
	movaps	%xmm1, %xmm2
	addss	%xmm3, %xmm2
	movss	%xmm2, (%rax)
.LVL588:
	.loc 1 527 0
	jl	.L289
.L200:
	.loc 1 530 0
	movzbl	(%rcx), %r9d
	pxor	%xmm3, %xmm3
	movss	104(%r14), %xmm0
	.loc 1 527 0
	cmpl	%r15d, %ebx
	.loc 1 530 0
	subss	72(%r14), %xmm0
	cvtsi2ss	%r9d, %xmm3
	mulss	%xmm3, %xmm0
	movaps	%xmm0, %xmm1
	addss	%xmm2, %xmm1
	movss	%xmm1, (%rax)
.LVL589:
	.loc 1 527 0
	jl	.L290
.L202:
	.loc 1 530 0
	movzbl	(%rcx), %r9d
	pxor	%xmm2, %xmm2
	movss	108(%r14), %xmm0
	subss	76(%r14), %xmm0
	cvtsi2ss	%r9d, %xmm2
	mulss	%xmm2, %xmm0
	addss	%xmm1, %xmm0
	jmp	.L203
.LVL590:
	.p2align 4,,10
	.p2align 3
.L278:
	movq	-112(%rbp), %r15
	movl	72(%r15), %r9d
.LVL591:
	jmp	.L210
.LVL592:
.L194:
	movl	-96(%rbp), %ebx
.LVL593:
	addl	%ebx, -172(%rbp)
	movq	-248(%rbp), %rdi
	movl	-172(%rbp), %eax
.LVL594:
	addq	%rdi, -192(%rbp)
	addl	%ebx, -176(%rbp)
	movq	-240(%rbp), %rdi
	addq	%rdi, -184(%rbp)
	cmpl	%eax, -216(%rbp)
	jg	.L189
	leaq	-64(%rbp), %rsi
	leaq	-72(%rbp), %rdi
	movq	%r14, %r13
	movq	%r15, %r14
	call	GOMP_loop_dynamic_next
.LVL595:
	testb	%al, %al
	jne	.L190
	movq	%r15, %r10
	movq	%r13, %r14
.LVL596:
.L186:
	movq	%r10, -88(%rbp)
	call	GOMP_loop_end
.LVL597:
.LBE6867:
.LBE6869:
.LBE6864:
.LBE6870:
.LBE6683:
.LBE6571:
.LBE6570:
.LBB6873:
	.loc 1 539 0
	movq	-88(%rbp), %r10
	movl	72(%r10), %eax
	movq	%r10, -96(%rbp)
	movl	%eax, %r15d
	movl	%eax, -184(%rbp)
	addl	$3, %eax
	testl	%r15d, %r15d
	cmovns	%r15d, %eax
	sarl	$2, %eax
	movl	%eax, %ebx
	call	omp_get_num_threads
.LVL598:
	movl	%eax, %r12d
	call	omp_get_thread_num
.LVL599:
	movl	%ebx, %edi
	imull	%eax, %edi
	leal	(%rdi,%rbx), %edx
	movl	%edi, %esi
	movl	%edi, -88(%rbp)
	cmpl	%r15d, %edx
	cmovg	%r15d, %edx
	cmpl	%r15d, %esi
	movl	%edx, -152(%rbp)
	jge	.L236
	movslq	%eax, %rdi
	addl	%r12d, %eax
	movq	-96(%rbp), %r10
	movq	%rdi, -160(%rbp)
	movl	%ebx, %edi
	imull	%r12d, %edi
	movq	%r10, %r15
	movl	%edi, -172(%rbp)
	movl	%eax, %edi
	addl	$1, %eax
	imull	%ebx, %edi
	imull	%ebx, %eax
	movl	%edi, -168(%rbp)
	subl	%edi, %eax
	movl	%eax, -192(%rbp)
.L240:
	movslq	-88(%rbp), %r8
	movq	%r15, %rcx
.L239:
.LVL600:
.LBB6874:
.LBB6875:
	.loc 1 543 0
	movl	76(%rcx), %eax
	.loc 1 605 0
	movq	%rsp, -96(%rbp)
.LVL601:
.LBB6876:
.LBB6877:
	.loc 2 430 0
	movq	%r8, %rdi
.LBE6877:
.LBE6876:
.LBB6882:
.LBB6883:
	movq	-160(%rbp), %r10
.LBE6883:
.LBE6882:
.LBB6885:
.LBB6886:
	movq	%r8, %r13
.LBE6886:
.LBE6885:
.LBB6891:
.LBB6892:
	.loc 5 90 0
	xorl	%esi, %esi
.LBE6892:
.LBE6891:
.LBB6896:
.LBB6887:
	.loc 2 430 0
	movq	%r8, -144(%rbp)
.LBE6887:
.LBE6896:
.LBB6897:
.LBB6893:
	.loc 5 90 0
	movq	%rcx, -112(%rbp)
.LBE6893:
.LBE6897:
	.loc 1 543 0
	addl	$8, %eax
	cltq
	leaq	18(,%rax,4), %rax
	andq	$-16, %rax
	subq	%rax, %rsp
	.loc 1 545 0
	movq	48(%rcx), %rax
	.loc 1 543 0
	leaq	3(%rsp), %r9
.LBB6898:
.LBB6878:
	.loc 2 430 0
	movq	72(%rax), %rdx
.LBE6878:
.LBE6898:
	.loc 1 543 0
	shrq	$2, %r9
	leaq	0(,%r9,4), %r12
.LVL602:
	movq	%r9, -136(%rbp)
.LBB6899:
.LBB6879:
	.loc 2 430 0
	imulq	(%rdx), %rdi
.LBE6879:
.LBE6899:
	.loc 1 552 0
	addq	$16, %r12
.LVL603:
.LBB6900:
.LBB6880:
	.loc 2 430 0
	movq	%rdi, %rdx
	addq	16(%rax), %rdx
.LBE6880:
.LBE6900:
	.loc 1 546 0
	movq	56(%rcx), %rax
.LVL604:
.LBB6901:
.LBB6881:
	.loc 2 430 0
	movq	%rdx, -104(%rbp)
.LBE6881:
.LBE6901:
.LBB6902:
.LBB6884:
	movq	72(%rax), %rdx
	imulq	(%rdx), %r10
	addq	16(%rax), %r10
.LVL605:
.LBE6884:
.LBE6902:
	.loc 1 547 0
	movq	40(%rcx), %rax
.LVL606:
.LBB6903:
.LBB6888:
	.loc 2 430 0
	movq	72(%rax), %rdx
.LBE6888:
.LBE6903:
	.loc 1 551 0
	leaq	16(%r10), %rbx
	movq	%r10, -128(%rbp)
.LBB6904:
.LBB6889:
	.loc 2 430 0
	imulq	(%rdx), %r13
.LBE6889:
.LBE6904:
.LBB6905:
.LBB6894:
	.loc 5 90 0
	movq	%rbx, %rdi
.LBE6894:
.LBE6905:
.LBB6906:
.LBB6890:
	.loc 2 430 0
	addq	16(%rax), %r13
.LVL607:
	movl	0(,%r9,4), %eax
.LVL608:
.LBE6890:
.LBE6906:
.LBB6907:
.LBB6908:
	.loc 5 53 0
	movl	%eax, (%r10)
.LVL609:
.LBE6908:
.LBE6907:
.LBB6909:
.LBB6910:
	movl	%eax, 4(%r10)
.LVL610:
.LBE6910:
.LBE6909:
.LBB6911:
.LBB6912:
	movq	(%r10), %rax
	movq	%rax, 8(%r10)
.LVL611:
.LBE6912:
.LBE6911:
.LBB6913:
.LBB6895:
	.loc 5 90 0
	movslq	76(%rcx), %rdx
	salq	$2, %rdx
.LVL612:
	call	memset
.LVL613:
.LBE6895:
.LBE6913:
	.loc 1 552 0
	movq	-112(%rbp), %rcx
.LBB6914:
.LBB6915:
	.loc 5 53 0
	movq	-104(%rbp), %rsi
	movq	%r12, %rdi
.LBE6915:
.LBE6914:
	.loc 1 552 0
	movslq	76(%rcx), %r15
	movq	%rcx, -120(%rbp)
.LBB6918:
.LBB6916:
	.loc 5 53 0
	leaq	0(,%r15,4), %rdx
.LBE6916:
.LBE6918:
	.loc 1 552 0
	movl	%r15d, -112(%rbp)
.LVL614:
.LBB6919:
.LBB6917:
	.loc 5 53 0
	call	memcpy
.LVL615:
.LBE6917:
.LBE6919:
.LBB6920:
.LBB6921:
	movq	-128(%rbp), %r10
.LBE6921:
.LBE6920:
.LBB6925:
	.loc 1 556 0
	movl	-112(%rbp), %r11d
.LBE6925:
.LBB6960:
.LBB6922:
	.loc 5 53 0
	movq	-136(%rbp), %r9
.LBE6922:
.LBE6960:
.LBB6961:
	.loc 1 556 0
	movq	-120(%rbp), %rcx
	movq	-144(%rbp), %r8
.LBE6961:
.LBB6962:
.LBB6923:
	.loc 5 53 0
	movq	(%r10), %rax
	movq	8(%r10), %rdx
.LBE6923:
.LBE6962:
.LBB6963:
	.loc 1 556 0
	testl	%r11d, %r11d
.LBE6963:
.LBB6964:
.LBB6924:
	.loc 5 53 0
	movq	%rax, 0(,%r9,4)
	movq	%rdx, 8(,%r9,4)
.LVL616:
.LBE6924:
.LBE6964:
.LBB6965:
	.loc 1 556 0
	jle	.L291
	movss	4(,%r9,4), %xmm0
	.loc 1 556 0 is_stmt 0 discriminator 2
	xorl	%esi, %esi
	movss	8(,%r9,4), %xmm3
	movss	12(,%r9,4), %xmm2
.LVL617:
	.p2align 4,,10
	.p2align 3
.L243:
.LBB6926:
.LBB6927:
.LBB6928:
	.loc 4 946 0 is_stmt 1 discriminator 2
	movaps	%xmm3, %xmm1
.LBE6928:
.LBE6927:
	.loc 1 567 0 discriminator 2
	movss	(%r12), %xmm4
.LBB6931:
.LBB6932:
	.loc 4 946 0 discriminator 2
	movss	-12(%rbx), %xmm5
.LBE6932:
.LBE6931:
.LBB6936:
.LBB6929:
	unpcklps	%xmm0, %xmm1
	movaps	%xmm4, %xmm0
.LBE6929:
.LBE6936:
.LBB6937:
.LBB6933:
	insertps	$0x10, -16(%rbx), %xmm5
.LBE6933:
.LBE6937:
.LBB6938:
.LBB6930:
	unpcklps	%xmm2, %xmm0
	movlhps	%xmm1, %xmm0
.LBE6930:
.LBE6938:
.LBB6939:
.LBB6934:
	movss	-4(%rbx), %xmm1
	insertps	$0x10, -8(%rbx), %xmm1
.LBE6934:
.LBE6939:
.LBB6940:
.LBB6941:
	.loc 4 189 0 discriminator 2
	mulps	32(%r14), %xmm0
.LBE6941:
.LBE6940:
.LBB6943:
.LBB6935:
	.loc 4 946 0 discriminator 2
	movlhps	%xmm5, %xmm1
.LBE6935:
.LBE6943:
.LBB6944:
.LBB6942:
	.loc 4 189 0 discriminator 2
	mulps	16(%r14), %xmm1
	subps	%xmm1, %xmm0
.LBE6942:
.LBE6944:
.LBB6945:
.LBB6946:
	.file 7 "/usr/lib/gcc/x86_64-linux-gnu/5/include/pmmintrin.h"
	.loc 7 58 0 discriminator 2
	haddps	%xmm0, %xmm0
.LBE6946:
.LBE6945:
.LBB6947:
.LBB6948:
	haddps	%xmm0, %xmm0
.LBE6948:
.LBE6947:
.LBB6949:
.LBB6950:
	.loc 4 960 0 discriminator 2
	movss	%xmm0, (%rbx)
.LBE6950:
.LBE6949:
.LBB6951:
.LBB6952:
.LBB6953:
.LBB6954:
.LBB6955:
.LBB6956:
	.loc 3 63 0 discriminator 2
	cvtss2sd	%xmm0, %xmm0
.LBE6956:
.LBE6955:
.LBB6957:
.LBB6958:
	.loc 3 827 0 discriminator 2
	cvtsd2si	%xmm0, %edx
	movaps	%xmm3, %xmm0
	movaps	%xmm2, %xmm3
	movaps	%xmm4, %xmm2
.LBE6958:
.LBE6957:
.LBE6954:
.LBE6953:
.LBE6952:
.LBE6951:
	.loc 1 575 0 discriminator 2
	testl	%edx, %edx
	setg	%al
	negl	%eax
	cmpl	$255, %edx
	cmovbe	%edx, %eax
.LBE6926:
	.loc 1 556 0 discriminator 2
	addl	$1, %esi
.LVL618:
	addq	$4, %r12
.LVL619:
.LBB6959:
	.loc 1 575 0 discriminator 2
	movb	%al, 0(%r13)
.LBE6959:
	.loc 1 556 0 discriminator 2
	movslq	76(%rcx), %rax
	addq	$4, %rbx
.LVL620:
	addq	$1, %r13
.LVL621:
	cmpl	%esi, %eax
	jg	.L243
.LVL622:
.L244:
.LBE6965:
	.loc 1 577 0
	movq	40(%rcx), %rdx
.LVL623:
	movq	%r8, %rdi
	movq	%r8, -112(%rbp)
	.loc 1 581 0
	movq	%rcx, -104(%rbp)
	.loc 1 578 0
	leaq	-4(%r12), %r13
.LVL624:
.LBB6966:
.LBB6967:
	.loc 2 430 0
	movq	72(%rdx), %rsi
.LBE6967:
.LBE6966:
	.loc 1 577 0
	imulq	(%rsi), %rdi
.LBB6968:
.LBB6969:
	.loc 5 90 0
	xorl	%esi, %esi
.LBE6969:
.LBE6968:
	.loc 1 577 0
	leaq	-1(%rax,%rdi), %r15
	movl	-4(%r12), %eax
	addq	16(%rdx), %r15
.LVL625:
.LBB6972:
.LBB6970:
	.loc 5 90 0
	movq	%rbx, %rdi
.LBE6970:
.LBE6972:
	.loc 1 584 0
	subq	$4, %rbx
.LVL626:
.LBB6973:
.LBB6974:
	.loc 5 53 0
	movl	%eax, 4(%rbx)
.LVL627:
.LBE6974:
.LBE6973:
.LBB6975:
.LBB6976:
	movl	%eax, 8(%rbx)
.LVL628:
.LBE6976:
.LBE6975:
.LBB6977:
.LBB6978:
	movq	4(%rbx), %rax
	movq	%rax, 12(%rbx)
.LVL629:
.LBE6978:
.LBE6977:
	.loc 1 581 0
	movslq	76(%rcx), %rdx
.LVL630:
	salq	$2, %rdx
.LVL631:
.LBB6979:
.LBB6971:
	.loc 5 90 0
	subq	%rdx, %rdi
.LVL632:
	call	memset
.LVL633:
	movq	4(%rbx), %rax
	movq	12(%rbx), %rdx
.LBE6971:
.LBE6979:
.LBB6980:
	.loc 1 585 0
	movq	-104(%rbp), %rcx
	movq	-112(%rbp), %r8
.LBE6980:
.LBB7021:
.LBB7022:
	.loc 5 53 0
	movq	%rax, (%r12)
	movq	%rdx, 8(%r12)
.LVL634:
.LBE7022:
.LBE7021:
.LBB7023:
	.loc 1 585 0
	movl	76(%rcx), %eax
.LVL635:
	testl	%eax, %eax
	jle	.L241
	subl	$1, %eax
.LVL636:
	movq	$-8, %rdi
	salq	$2, %rax
	subq	%rax, %rdi
	addq	%rdi, %r12
.LVL637:
	.p2align 4,,10
	.p2align 3
.L242:
.LBB6981:
.LBB6982:
.LBB6983:
	.loc 4 946 0 discriminator 2
	movss	12(%r13), %xmm1
	movss	4(%r13), %xmm0
	insertps	$0x10, 16(%r13), %xmm1
.LBE6983:
.LBE6982:
.LBB6986:
.LBB6987:
	movss	12(%rbx), %xmm2
.LBE6987:
.LBE6986:
.LBB6991:
.LBB6984:
	insertps	$0x10, 8(%r13), %xmm0
.LBE6984:
.LBE6991:
.LBB6992:
.LBB6988:
	insertps	$0x10, 16(%rbx), %xmm2
.LBE6988:
.LBE6992:
.LBB6993:
.LBB6985:
	movlhps	%xmm1, %xmm0
.LBE6985:
.LBE6993:
.LBB6994:
.LBB6989:
	movss	4(%rbx), %xmm1
	insertps	$0x10, 8(%rbx), %xmm1
.LBE6989:
.LBE6994:
.LBB6995:
.LBB6996:
	.loc 4 189 0 discriminator 2
	mulps	48(%r14), %xmm0
.LBE6996:
.LBE6995:
.LBB6998:
.LBB6990:
	.loc 4 946 0 discriminator 2
	movlhps	%xmm2, %xmm1
.LBE6990:
.LBE6998:
.LBB6999:
.LBB6997:
	.loc 4 189 0 discriminator 2
	mulps	16(%r14), %xmm1
	subps	%xmm1, %xmm0
.LBE6997:
.LBE6999:
.LBB7000:
.LBB7001:
.LBB7002:
.LBB7003:
.LBB7004:
.LBB7005:
	.loc 3 63 0 discriminator 2
	pxor	%xmm1, %xmm1
.LBE7005:
.LBE7004:
.LBE7003:
.LBE7002:
.LBE7001:
.LBE7000:
.LBB7013:
.LBB7014:
	.loc 7 58 0 discriminator 2
	haddps	%xmm0, %xmm0
.LBE7014:
.LBE7013:
.LBB7015:
.LBB7016:
	haddps	%xmm0, %xmm0
.LBE7016:
.LBE7015:
.LBB7017:
.LBB7018:
	.loc 4 960 0 discriminator 2
	movss	%xmm0, (%rbx)
.LBE7018:
.LBE7017:
.LBB7019:
.LBB7012:
.LBB7011:
.LBB7010:
.LBB7007:
.LBB7006:
	.loc 3 63 0 discriminator 2
	movzbl	(%r15), %eax
	cvtsi2ss	%eax, %xmm1
	addss	%xmm1, %xmm0
	cvtss2sd	%xmm0, %xmm0
.LBE7006:
.LBE7007:
.LBB7008:
.LBB7009:
	.loc 3 827 0 discriminator 2
	cvtsd2si	%xmm0, %edx
.LBE7009:
.LBE7008:
.LBE7010:
.LBE7011:
.LBE7012:
.LBE7019:
	.loc 1 604 0 discriminator 2
	testl	%edx, %edx
	setg	%al
	negl	%eax
	cmpl	$255, %edx
	cmovbe	%edx, %eax
.LBE6981:
	.loc 1 585 0 discriminator 2
	subq	$4, %r13
	subq	$4, %rbx
.LBB7020:
	.loc 1 604 0 discriminator 2
	movb	%al, (%r15)
.LVL638:
.LBE7020:
	.loc 1 585 0 discriminator 2
	subq	$1, %r15
.LVL639:
	cmpq	%r12, %r13
	jne	.L242
.L241:
	addl	$1, -88(%rbp)
.LVL640:
	addq	$1, %r8
.LBE7023:
	movq	-96(%rbp), %rsp
	movl	-88(%rbp), %eax
.LVL641:
	cmpl	%eax, -152(%rbp)
	jg	.L239
	movl	-168(%rbp), %ebx
.LVL642:
	movl	-192(%rbp), %edi
	movq	%rcx, %r15
.LVL643:
	addl	%ebx, %edi
	movl	%ebx, -88(%rbp)
	movl	%edi, %eax
.LVL644:
	movl	-184(%rbp), %edi
	cmpl	%edi, %eax
	cmovg	%edi, %eax
	movl	%eax, -152(%rbp)
	movl	%ebx, %eax
	movl	-172(%rbp), %ebx
	addl	%ebx, %eax
	movl	%eax, -168(%rbp)
	subl	%ebx, %eax
	cmpl	%eax, %edi
	jg	.L240
.LVL645:
.L236:
	call	GOMP_barrier
.LVL646:
.LBE6875:
.LBE6874:
.LBE6873:
	.loc 1 392 0
	movq	-56(%rbp), %rax
	xorq	%fs:40, %rax
	jne	.L292
	leaq	-40(%rbp), %rsp
	popq	%rbx
	popq	%r12
	popq	%r13
	popq	%r14
	popq	%r15
	popq	%rbp
	.cfi_remember_state
	.cfi_def_cfa 7, 8
	ret
.LVL647:
	.p2align 4,,10
	.p2align 3
.L282:
	.cfi_restore_state
.LBB7027:
.LBB6872:
.LBB6871:
.LBB6682:
.LBB6681:
	.loc 1 405 0
	movl	-172(%rbp), %ecx
.LBE6681:
	.loc 1 404 0
	xorl	%r9d, %r9d
	jmp	.L211
.LVL648:
.L291:
.LBE6682:
.LBE6871:
.LBE6872:
.LBE7027:
.LBB7028:
.LBB7026:
.LBB7025:
.LBB7024:
	.loc 1 556 0
	movq	%r15, %rax
	jmp	.L244
.LVL649:
.L292:
.LBE7024:
.LBE7025:
.LBE7026:
.LBE7028:
	.loc 1 392 0
	call	__stack_chk_fail
.LVL650:
	.cfi_endproc
.LFE12402:
	.size	_ZN15fastGaussianIIR6apply_IhfLi1EEEvRKN2cv3MatERS2_._omp_fn.3, .-_ZN15fastGaussianIIR6apply_IhfLi1EEEvRKN2cv3MatERS2_._omp_fn.3
	.section	.text.unlikely._ZN15fastGaussianIIR6apply_IhfLi1EEEvRKN2cv3MatERS2_._omp_fn.3,"axG",@progbits,_ZN15fastGaussianIIR6apply_IhfLi1EEEvRKN2cv3MatERS2_,comdat
.LCOLDE3:
	.section	.text._ZN15fastGaussianIIR6apply_IhfLi1EEEvRKN2cv3MatERS2_._omp_fn.3,"axG",@progbits,_ZN15fastGaussianIIR6apply_IhfLi1EEEvRKN2cv3MatERS2_,comdat
.LHOTE3:
	.section	.text.unlikely._ZN15fastGaussianIIR6apply_IN2cv3VecIhLi2EEENS2_IfLi2EEELi2EEEvRKNS1_3MatERS5_._omp_fn.4,"axG",@progbits,_ZN15fastGaussianIIR6apply_IN2cv3VecIhLi2EEENS2_IfLi2EEELi2EEEvRKNS1_3MatERS5_,comdat
.LCOLDB4:
	.section	.text._ZN15fastGaussianIIR6apply_IN2cv3VecIhLi2EEENS2_IfLi2EEELi2EEEvRKNS1_3MatERS5_._omp_fn.4,"axG",@progbits,_ZN15fastGaussianIIR6apply_IN2cv3VecIhLi2EEENS2_IfLi2EEELi2EEEvRKNS1_3MatERS5_,comdat
.LHOTB4:
	.p2align 4,,15
	.type	_ZN15fastGaussianIIR6apply_IN2cv3VecIhLi2EEENS2_IfLi2EEELi2EEEvRKNS1_3MatERS5_._omp_fn.4, @function
_ZN15fastGaussianIIR6apply_IN2cv3VecIhLi2EEENS2_IfLi2EEELi2EEEvRKNS1_3MatERS5_._omp_fn.4:
.LFB12403:
	.loc 1 392 0
	.cfi_startproc
	.cfi_personality 0x3,__gxx_personality_v0
.LVL651:
	pushq	%rbp
	.cfi_def_cfa_offset 16
	.cfi_offset 6, -16
	movl	$1, %ecx
	movq	%rsp, %rbp
	.cfi_def_cfa_register 6
	pushq	%r15
	pushq	%r14
	pushq	%r13
	pushq	%r12
	leaq	-64(%rbp), %r9
	pushq	%rbx
	leaq	-72(%rbp), %r8
	subq	$216, %rsp
	.cfi_offset 15, -24
	.cfi_offset 14, -32
	.cfi_offset 13, -40
	.cfi_offset 12, -48
	.cfi_offset 3, -56
	movslq	76(%rdi), %rsi
	.loc 1 392 0
	movq	16(%rdi), %r14
	movq	%fs:40, %rax
	movq	%rax, -56(%rbp)
	xorl	%eax, %eax
	movq	24(%rdi), %rax
	movq	%rdi, -88(%rbp)
	movq	%rax, -232(%rbp)
.LVL652:
	movslq	80(%rdi), %rax
.LVL653:
	xorl	%edi, %edi
.LVL654:
	movq	%rax, %rdx
	movl	%eax, -96(%rbp)
.LVL655:
	movq	%rax, %rbx
	movq	%rax, -248(%rbp)
	call	GOMP_loop_dynamic_start
.LVL656:
	testb	%al, %al
	movq	-88(%rbp), %r10
	je	.L294
	movq	%rbx, %rax
	movq	%r14, %r13
	salq	$2, %rax
	movq	%rax, -240(%rbp)
	leaq	96(%r14), %rax
	movq	%r10, %r14
.LVL657:
	movq	%rax, -224(%rbp)
.LVL658:
.L298:
	movq	-72(%rbp), %rax
	movl	-64(%rbp), %edi
	movq	%r14, %r15
	movq	%r13, %r14
	movl	%eax, -172(%rbp)
.LVL659:
	movl	%eax, -176(%rbp)
	cltq
.LVL660:
	movq	%rax, -192(%rbp)
	salq	$2, %rax
	movl	%edi, -216(%rbp)
	movq	%rax, -184(%rbp)
.L297:
.LVL661:
.LBB7029:
.LBB7030:
.LBB7031:
	.loc 1 399 0
	movl	72(%r15), %r9d
	movq	-232(%rbp), %rax
	xorl	%esi, %esi
	addq	-184(%rbp), %rax
	movq	$0, -104(%rbp)
	testl	%r9d, %r9d
	movq	%rax, -120(%rbp)
	jle	.L321
.LVL662:
	.p2align 4,,10
	.p2align 3
.L377:
.LBB7032:
	.loc 1 400 0
	movq	32(%r15), %rax
	movq	-104(%rbp), %rbx
	movq	16(%rax), %rdi
.LVL663:
.LBB7033:
.LBB7034:
	.loc 2 436 0
	movq	72(%rax), %rax
.LVL664:
.LBE7034:
.LBE7033:
	.loc 1 400 0
	movq	%rbx, %r8
	imulq	(%rax), %r8
	movq	-192(%rbp), %rax
	addq	%rax, %r8
	addq	%rdi, %r8
.LVL665:
	.loc 1 401 0
	addq	%rax, %rdi
.LVL666:
	.loc 1 402 0
	movq	48(%r15), %rax
.LVL667:
.LBB7035:
.LBB7036:
	.loc 2 430 0
	movq	72(%rax), %rdx
.LBE7036:
.LBE7035:
	.loc 1 402 0
	imulq	(%rdx), %rbx
	movq	%rbx, %rdx
	addq	-184(%rbp), %rdx
	addq	16(%rax), %rdx
.LVL668:
.LBB7037:
	.loc 1 405 0
	movl	-96(%rbp), %eax
.LVL669:
	testl	%eax, %eax
	jle	.L318
	movl	76(%r15), %eax
	leal	-15(%rax), %ecx
	cmpl	%ecx, -172(%rbp)
	jge	.L397
	leaq	80(%r14), %r13
	leaq	64(%r14), %r12
	movq	%r14, -112(%rbp)
	movq	-120(%rbp), %rbx
	movl	-176(%rbp), %r14d
	xorl	%r9d, %r9d
.LVL670:
	.p2align 4,,10
	.p2align 3
.L336:
	pxor	%xmm1, %xmm1
	movl	$1, %ecx
	movdqa	(%r15), %xmm5
	xorl	%eax, %eax
	movl	%r9d, -88(%rbp)
	movaps	%xmm1, %xmm7
	movaps	%xmm1, %xmm6
	movaps	%xmm1, %xmm8
.LVL671:
.L341:
.LBB7038:
.LBB7039:
.LBB7040:
	.loc 1 409 0
	cmpl	%eax, %esi
	movl	%eax, %r11d
.LVL672:
	jge	.L338
	movq	%rdi, %r10
.L343:
.LVL673:
.LBB7041:
.LBB7042:
	.loc 3 698 0 discriminator 4
	movdqu	(%r10), %xmm2
.LBE7042:
.LBE7041:
.LBB7043:
.LBB7044:
.LBB7045:
.LBB7046:
	.loc 4 884 0 discriminator 4
	movss	0(%r13,%rax,4), %xmm0
.LVL674:
.LBE7046:
.LBE7045:
.LBE7044:
.LBE7043:
	.loc 1 424 0 discriminator 4
	cmpl	%r11d, %esi
.LBB7047:
.LBB7048:
	.loc 3 965 0 discriminator 4
	movdqa	%xmm2, %xmm3
.LBE7048:
.LBE7047:
.LBB7050:
.LBB7051:
	.loc 4 743 0 discriminator 4
	shufps	$0, %xmm0, %xmm0
.LVL675:
.LBE7051:
.LBE7050:
.LBB7052:
.LBB7049:
	.loc 3 965 0 discriminator 4
	punpckhbw	%xmm5, %xmm3
.LVL676:
.LBE7049:
.LBE7052:
.LBB7053:
.LBB7054:
	.loc 3 989 0 discriminator 4
	punpcklbw	%xmm5, %xmm2
.LVL677:
.LBE7054:
.LBE7053:
.LBB7055:
.LBB7056:
	.loc 3 995 0 discriminator 4
	movdqa	%xmm3, %xmm9
.LBE7056:
.LBE7055:
.LBB7058:
.LBB7059:
	.loc 3 971 0 discriminator 4
	punpckhwd	%xmm5, %xmm3
.LVL678:
.LBE7059:
.LBE7058:
.LBB7060:
.LBB7061:
	movdqa	%xmm2, %xmm4
.LBE7061:
.LBE7060:
.LBB7063:
.LBB7057:
	.loc 3 995 0 discriminator 4
	punpcklwd	%xmm5, %xmm9
.LBE7057:
.LBE7063:
.LBB7064:
.LBB7062:
	.loc 3 971 0 discriminator 4
	punpckhwd	%xmm5, %xmm4
.LVL679:
.LBE7062:
.LBE7064:
.LBB7065:
.LBB7066:
	.loc 3 767 0 discriminator 4
	cvtdq2ps	%xmm3, %xmm3
.LBE7066:
.LBE7065:
.LBB7067:
.LBB7068:
	.loc 4 183 0 discriminator 4
	mulps	%xmm0, %xmm3
.LBE7068:
.LBE7067:
.LBB7070:
.LBB7071:
	.loc 3 995 0 discriminator 4
	punpcklwd	%xmm5, %xmm2
.LVL680:
.LBE7071:
.LBE7070:
.LBB7072:
.LBB7073:
	.loc 3 767 0 discriminator 4
	cvtdq2ps	%xmm4, %xmm4
.LVL681:
.LBE7073:
.LBE7072:
.LBB7074:
.LBB7075:
	.loc 4 183 0 discriminator 4
	mulps	%xmm0, %xmm4
.LBE7075:
.LBE7074:
.LBB7077:
.LBB7069:
	addps	%xmm3, %xmm8
.LVL682:
.LBE7069:
.LBE7077:
.LBB7078:
.LBB7079:
	.loc 3 767 0 discriminator 4
	cvtdq2ps	%xmm2, %xmm2
.LVL683:
.LBE7079:
.LBE7078:
.LBB7080:
.LBB7081:
	cvtdq2ps	%xmm9, %xmm3
.LVL684:
.LBE7081:
.LBE7080:
.LBB7082:
.LBB7083:
	.loc 4 183 0 discriminator 4
	mulps	%xmm0, %xmm3
.LBE7083:
.LBE7082:
.LBB7085:
.LBB7086:
	mulps	%xmm2, %xmm0
.LVL685:
.LBE7086:
.LBE7085:
.LBB7088:
.LBB7076:
	addps	%xmm4, %xmm7
.LVL686:
.LBE7076:
.LBE7088:
.LBB7089:
.LBB7084:
	addps	%xmm3, %xmm6
.LVL687:
.LBE7084:
.LBE7089:
.LBB7090:
.LBB7087:
	addps	%xmm0, %xmm1
.LVL688:
.LBE7087:
.LBE7090:
	.loc 1 424 0 discriminator 4
	jg	.L339
	movq	%rbx, %r10
.LVL689:
.L342:
.LBB7091:
.LBB7092:
.LBB7093:
.LBB7094:
	.loc 4 884 0 discriminator 4
	movss	(%r12,%rax,4), %xmm0
.LVL690:
.LBE7094:
.LBE7093:
.LBE7092:
.LBE7091:
.LBB7095:
.LBB7096:
	.loc 4 931 0 discriminator 4
	movups	48(%r10), %xmm9
.LVL691:
	addq	$1, %rax
.LVL692:
	addl	$1, %ecx
.LBE7096:
.LBE7095:
.LBB7097:
.LBB7098:
	.loc 4 743 0 discriminator 4
	shufps	$0, %xmm0, %xmm0
.LVL693:
.LBE7098:
.LBE7097:
.LBB7099:
.LBB7100:
	.loc 4 931 0 discriminator 4
	movups	32(%r10), %xmm4
.LVL694:
.LBE7100:
.LBE7099:
.LBE7040:
	.loc 1 408 0 discriminator 4
	cmpq	$4, %rax
.LBB7121:
.LBB7101:
.LBB7102:
	.loc 4 931 0 discriminator 4
	movups	16(%r10), %xmm3
.LVL695:
.LBE7102:
.LBE7101:
.LBB7103:
.LBB7104:
	.loc 4 189 0 discriminator 4
	mulps	%xmm0, %xmm9
.LVL696:
.LBE7104:
.LBE7103:
.LBB7106:
.LBB7107:
	.loc 4 931 0 discriminator 4
	movups	(%r10), %xmm2
.LVL697:
.LBE7107:
.LBE7106:
.LBB7108:
.LBB7109:
	.loc 4 189 0 discriminator 4
	mulps	%xmm0, %xmm4
.LVL698:
.LBE7109:
.LBE7108:
.LBB7111:
.LBB7112:
	mulps	%xmm0, %xmm3
.LVL699:
.LBE7112:
.LBE7111:
.LBB7114:
.LBB7105:
	subps	%xmm9, %xmm8
.LVL700:
.LBE7105:
.LBE7114:
.LBB7115:
.LBB7116:
	mulps	%xmm2, %xmm0
.LVL701:
.LBE7116:
.LBE7115:
.LBB7118:
.LBB7110:
	subps	%xmm4, %xmm6
.LVL702:
.LBE7110:
.LBE7118:
.LBB7119:
.LBB7113:
	subps	%xmm3, %xmm7
.LVL703:
.LBE7113:
.LBE7119:
.LBB7120:
.LBB7117:
	subps	%xmm0, %xmm1
.LVL704:
.LBE7117:
.LBE7120:
.LBE7121:
	.loc 1 408 0 discriminator 4
	jne	.L341
	movl	-88(%rbp), %r9d
.LVL705:
.LBE7039:
.LBE7038:
	.loc 1 405 0
	addq	$16, %r8
.LVL706:
	addq	$16, %rdi
.LVL707:
.LBB7132:
.LBB7123:
.LBB7124:
	.loc 4 980 0
	movups	%xmm1, (%rdx)
.LVL708:
.LBE7124:
.LBE7123:
.LBE7132:
	.loc 1 405 0
	addq	$64, %rbx
.LVL709:
	addq	$64, %rdx
.LVL710:
.LBB7133:
.LBB7125:
.LBB7126:
	.loc 4 980 0
	movups	%xmm7, -48(%rdx)
.LVL711:
.LBE7126:
.LBE7125:
.LBE7133:
	.loc 1 405 0
	addl	$16, %r9d
.LBB7134:
.LBB7127:
.LBB7128:
	.loc 4 980 0
	movups	%xmm6, -32(%rdx)
.LVL712:
.LBE7128:
.LBE7127:
.LBB7129:
.LBB7130:
	movups	%xmm8, -16(%rdx)
.LVL713:
.LBE7130:
.LBE7129:
.LBE7134:
	.loc 1 405 0
	cmpl	%r9d, -96(%rbp)
	jle	.L398
	.loc 1 405 0 is_stmt 0 discriminator 1
	movl	76(%r15), %eax
	leal	(%r9,%r14), %ecx
	leal	-15(%rax), %r10d
.LVL714:
	cmpl	%ecx, %r10d
	jg	.L336
	movq	-112(%rbp), %r14
.LVL715:
.L319:
.LBE7037:
.LBB7136:
	.loc 1 442 0 is_stmt 1
	cmpl	%ecx, %eax
	jle	.L392
.LBB7137:
	.loc 1 450 0 discriminator 1
	movslq	%eax, %rbx
	.loc 1 445 0 discriminator 1
	leal	(%rax,%rax), %ecx
	movq	%r15, -112(%rbp)
	.loc 1 450 0 discriminator 1
	leaq	0(,%rbx,4), %r10
	.loc 1 445 0 discriminator 1
	movq	%rbx, -88(%rbp)
	movl	-176(%rbp), %r15d
	movslq	%ecx, %r12
	addl	%eax, %ecx
	movl	-96(%rbp), %ebx
	.loc 1 450 0 discriminator 1
	negq	%r10
	.loc 1 445 0 discriminator 1
	movslq	%ecx, %r13
	jmp	.L366
.LVL716:
	.p2align 4,,10
	.p2align 3
.L399:
	.loc 1 445 0 is_stmt 0
	movzbl	(%r8), %ecx
	pxor	%xmm0, %xmm0
	cvtsi2ss	%ecx, %xmm0
	mulss	80(%r14), %xmm0
	addss	(%rdx), %xmm0
	movss	%xmm0, (%rdx)
	.loc 1 449 0 is_stmt 1
	je	.L326
	.loc 1 450 0
	leaq	(%rdx,%r10), %rcx
	movss	64(%r14), %xmm1
	.loc 1 445 0
	movq	%r8, %r11
	subq	-88(%rbp), %r11
	.loc 1 449 0
	cmpl	$1, %esi
	.loc 1 450 0
	mulss	(%rcx), %xmm1
	subss	%xmm1, %xmm0
	.loc 1 445 0
	pxor	%xmm1, %xmm1
	.loc 1 450 0
	movss	%xmm0, (%rdx)
.LVL717:
	.loc 1 445 0
	movzbl	(%r11), %r11d
	cvtsi2ss	%r11d, %xmm1
	mulss	84(%r14), %xmm1
	addss	%xmm1, %xmm0
	movss	%xmm0, (%rdx)
	.loc 1 449 0
	je	.L328
	.loc 1 450 0
	movss	68(%r14), %xmm1
	addq	%r10, %rcx
	.loc 1 445 0
	movq	%r8, %r11
	.loc 1 450 0
	mulss	(%rcx), %xmm1
	.loc 1 445 0
	subq	%r12, %r11
	.loc 1 449 0
	cmpl	$2, %esi
	.loc 1 450 0
	subss	%xmm1, %xmm0
	.loc 1 445 0
	pxor	%xmm1, %xmm1
	.loc 1 450 0
	movss	%xmm0, (%rdx)
.LVL718:
	.loc 1 445 0
	movzbl	(%r11), %r11d
	cvtsi2ss	%r11d, %xmm1
	mulss	88(%r14), %xmm1
	addss	%xmm1, %xmm0
	movss	%xmm0, (%rdx)
	.loc 1 449 0
	je	.L330
	.loc 1 450 0
	movss	72(%r14), %xmm1
	.loc 1 445 0
	movq	%r8, %r11
	.loc 1 450 0
	mulss	(%rcx,%r10), %xmm1
	.loc 1 445 0
	subq	%r13, %r11
	.loc 1 449 0
	cmpl	$3, %esi
	.loc 1 450 0
	subss	%xmm1, %xmm0
	.loc 1 445 0
	pxor	%xmm1, %xmm1
	.loc 1 450 0
	movss	%xmm0, (%rdx)
.LVL719:
	.loc 1 445 0
	movzbl	(%r11), %r11d
	cvtsi2ss	%r11d, %xmm1
	mulss	92(%r14), %xmm1
	addss	%xmm1, %xmm0
	movss	%xmm0, (%rdx)
	.loc 1 449 0
	je	.L332
	.loc 1 450 0
	movss	(%rcx,%r10,2), %xmm1
	mulss	76(%r14), %xmm1
	subss	%xmm1, %xmm0
.L333:
.LBE7137:
	.loc 1 442 0
	addl	$1, %r9d
.LVL720:
	movss	%xmm0, (%rdx)
.LVL721:
	addq	$1, %r8
.LVL722:
	addq	$1, %rdi
.LVL723:
	addq	$4, %rdx
.LVL724:
	cmpl	%r9d, %ebx
	jle	.L393
	.loc 1 442 0 is_stmt 0 discriminator 1
	leal	(%r9,%r15), %ecx
	cmpl	%ecx, %eax
	jle	.L393
.LVL725:
.L366:
.LBB7138:
	.loc 1 444 0 is_stmt 1 discriminator 1
	testl	%esi, %esi
	jns	.L399
	.loc 1 447 0
	movzbl	(%rdi), %ecx
	pxor	%xmm0, %xmm0
	cvtsi2ss	%ecx, %xmm0
	mulss	80(%r14), %xmm0
	addss	(%rdx), %xmm0
	movss	%xmm0, (%rdx)
.L326:
	.loc 1 452 0
	movzbl	(%rdi), %ecx
	pxor	%xmm1, %xmm1
	cvtsi2ss	%ecx, %xmm1
	mulss	64(%r14), %xmm1
	subss	%xmm1, %xmm0
	.loc 1 447 0
	pxor	%xmm1, %xmm1
	.loc 1 452 0
	movss	%xmm0, (%rdx)
.LVL726:
	.loc 1 447 0
	movzbl	(%rdi), %ecx
	cvtsi2ss	%ecx, %xmm1
	mulss	84(%r14), %xmm1
	addss	%xmm1, %xmm0
	movss	%xmm0, (%rdx)
.L328:
	.loc 1 452 0
	movzbl	(%rdi), %ecx
	pxor	%xmm1, %xmm1
	cvtsi2ss	%ecx, %xmm1
	mulss	68(%r14), %xmm1
	subss	%xmm1, %xmm0
	.loc 1 447 0
	pxor	%xmm1, %xmm1
	.loc 1 452 0
	movss	%xmm0, (%rdx)
.LVL727:
	.loc 1 447 0
	movzbl	(%rdi), %ecx
	cvtsi2ss	%ecx, %xmm1
	mulss	88(%r14), %xmm1
	addss	%xmm1, %xmm0
	movss	%xmm0, (%rdx)
.L330:
	.loc 1 452 0
	movzbl	(%rdi), %ecx
	pxor	%xmm1, %xmm1
	cvtsi2ss	%ecx, %xmm1
	mulss	72(%r14), %xmm1
	subss	%xmm1, %xmm0
	.loc 1 447 0
	pxor	%xmm1, %xmm1
	.loc 1 452 0
	movss	%xmm0, (%rdx)
.LVL728:
	.loc 1 447 0
	movzbl	(%rdi), %ecx
	cvtsi2ss	%ecx, %xmm1
	mulss	92(%r14), %xmm1
	addss	%xmm1, %xmm0
	movss	%xmm0, (%rdx)
.L332:
	.loc 1 452 0
	movzbl	(%rdi), %ecx
	pxor	%xmm1, %xmm1
	cvtsi2ss	%ecx, %xmm1
	mulss	76(%r14), %xmm1
	subss	%xmm1, %xmm0
	jmp	.L333
.LVL729:
	.p2align 4,,10
	.p2align 3
.L339:
.LBE7138:
.LBE7136:
.LBB7139:
.LBB7135:
.LBB7131:
.LBB7122:
	.loc 1 424 0 discriminator 1
	movl	76(%r15), %r10d
.LVL730:
	movq	%rdx, %r11
	imull	%ecx, %r10d
	movslq	%r10d, %r10
	salq	$2, %r10
	subq	%r10, %r11
	movq	%r11, %r10
	jmp	.L342
.LVL731:
	.p2align 4,,10
	.p2align 3
.L338:
	.loc 1 409 0 discriminator 1
	movl	76(%r15), %r10d
	movq	%r8, %r9
	imull	%eax, %r10d
	movslq	%r10d, %r10
	subq	%r10, %r9
	movq	%r9, %r10
	jmp	.L343
.LVL732:
	.p2align 4,,10
	.p2align 3
.L398:
	movq	-112(%rbp), %r14
.LVL733:
.L392:
	movl	72(%r15), %r9d
.LVL734:
.L318:
.LBE7122:
.LBE7131:
.LBE7135:
.LBE7139:
.LBE7032:
	.loc 1 399 0 discriminator 2
	addl	$1, %esi
.LVL735:
	addq	$1, -104(%rbp)
	cmpl	%r9d, %esi
	jl	.L377
.LVL736:
.L321:
.LBE7031:
.LBB7142:
	.loc 1 457 0
	leal	-1(%r9), %edx
	movslq	%edx, %rax
	testl	%edx, %edx
	movl	%edx, %ebx
.LVL737:
	movq	%rax, -200(%rbp)
	js	.L302
	movl	-96(%rbp), %r12d
	movl	-176(%rbp), %r10d
	movq	%rax, %r8
.LVL738:
	.p2align 4,,10
	.p2align 3
.L378:
.LBB7143:
	.loc 1 458 0
	movq	32(%r15), %rax
	movq	%r8, %rsi
	.loc 1 459 0
	movslq	%edx, %rdx
	.loc 1 458 0
	movq	-192(%rbp), %rcx
	.loc 1 460 0
	movq	-184(%rbp), %r11
	movq	16(%rax), %rdi
.LVL739:
.LBB7144:
.LBB7145:
	.loc 2 436 0
	movq	72(%rax), %rax
.LVL740:
	movq	(%rax), %rax
.LVL741:
.LBE7145:
.LBE7144:
	.loc 1 459 0
	imulq	%rax, %rdx
	.loc 1 458 0
	imulq	%rax, %rsi
	addq	%rcx, %rsi
	.loc 1 459 0
	addq	%rdx, %rcx
	.loc 1 460 0
	movq	64(%r15), %rdx
	.loc 1 458 0
	addq	%rdi, %rsi
.LVL742:
	.loc 1 459 0
	addq	%rdi, %rcx
.LVL743:
	.loc 1 460 0
	movq	%r8, %rdi
.LBB7146:
.LBB7147:
	.loc 2 430 0
	movq	72(%rdx), %rax
.LBE7147:
.LBE7146:
	.loc 1 460 0
	imulq	(%rax), %rdi
	movq	%rdi, %rax
	.loc 1 461 0
	movq	48(%r15), %rdi
	.loc 1 460 0
	addq	%r11, %rax
	addq	16(%rdx), %rax
.LVL744:
.LBB7148:
.LBB7149:
	.loc 2 430 0
	movq	72(%rdi), %rdx
.LBE7149:
.LBE7148:
	.loc 1 461 0
	imulq	(%rdx), %r8
	movq	%r8, %rdx
	addq	%r11, %rdx
	addq	16(%rdi), %rdx
.LVL745:
.LBB7150:
	.loc 1 463 0
	testl	%r12d, %r12d
	jle	.L299
	movl	76(%r15), %r8d
	leal	-15(%r8), %edi
.LVL746:
	cmpl	%edi, -172(%rbp)
	jge	.L358
	movq	-224(%rbp), %r13
	xorl	%edi, %edi
.LVL747:
	.p2align 4,,10
	.p2align 3
.L301:
	xorl	%r8d, %r8d
	pxor	%xmm0, %xmm0
.LBB7151:
.LBB7152:
.LBB7153:
	.loc 1 467 0
	addl	$1, %r8d
	movq	%r13, %r11
	subl	%r8d, %r9d
	movdqa	(%r15), %xmm4
.LVL748:
	cmpl	%ebx, %r9d
.LBE7153:
.LBE7152:
.LBE7151:
	.loc 1 463 0
	movaps	%xmm0, %xmm7
.LVL749:
	movaps	%xmm0, %xmm6
.LVL750:
	movaps	%xmm0, %xmm3
.LVL751:
.LBB7319:
.LBB7286:
.LBB7282:
	.loc 1 467 0
	jg	.L316
.LVL752:
.L400:
.LBB7154:
	.loc 1 496 0
	movss	(%r11), %xmm1
	addq	$4, %r11
.LBB7155:
.LBB7156:
	.loc 3 698 0
	movdqu	(%rcx), %xmm2
.LBE7156:
.LBE7155:
	.loc 1 496 0
	subss	-36(%r11), %xmm1
.LVL753:
.LBE7154:
.LBE7282:
	.loc 1 466 0
	cmpl	$4, %r8d
.LBB7283:
.LBB7197:
.LBB7157:
.LBB7158:
	.loc 3 965 0
	movdqa	%xmm2, %xmm5
.LBE7158:
.LBE7157:
.LBB7160:
.LBB7161:
	.loc 3 989 0
	punpcklbw	%xmm4, %xmm2
.LBE7161:
.LBE7160:
.LBB7162:
.LBB7159:
	.loc 3 965 0
	punpckhbw	%xmm4, %xmm5
.LBE7159:
.LBE7162:
.LBB7163:
.LBB7164:
	.loc 3 971 0
	movdqa	%xmm2, %xmm8
.LBE7164:
.LBE7163:
.LBB7166:
.LBB7167:
	.loc 3 995 0
	punpcklwd	%xmm4, %xmm2
.LBE7167:
.LBE7166:
.LBB7168:
.LBB7169:
	.loc 4 891 0
	shufps	$0, %xmm1, %xmm1
.LVL754:
.LBE7169:
.LBE7168:
.LBB7170:
.LBB7171:
	.loc 3 995 0
	movdqa	%xmm5, %xmm9
.LBE7171:
.LBE7170:
.LBB7173:
.LBB7174:
	.loc 3 971 0
	punpckhwd	%xmm4, %xmm5
.LVL755:
.LBE7174:
.LBE7173:
.LBB7175:
.LBB7176:
	.loc 3 767 0
	cvtdq2ps	%xmm2, %xmm2
.LBE7176:
.LBE7175:
.LBB7177:
.LBB7165:
	.loc 3 971 0
	punpckhwd	%xmm4, %xmm8
.LVL756:
.LBE7165:
.LBE7177:
.LBB7178:
.LBB7172:
	.loc 3 995 0
	punpcklwd	%xmm4, %xmm9
.LVL757:
.LBE7172:
.LBE7178:
.LBB7179:
.LBB7180:
	.loc 3 767 0
	cvtdq2ps	%xmm5, %xmm5
.LVL758:
.LBE7180:
.LBE7179:
.LBB7181:
.LBB7182:
	.loc 4 183 0
	mulps	%xmm1, %xmm5
	addps	%xmm5, %xmm3
.LVL759:
.LBE7182:
.LBE7181:
.LBB7183:
.LBB7184:
	.loc 3 767 0
	cvtdq2ps	%xmm9, %xmm5
.LVL760:
.LBE7184:
.LBE7183:
.LBB7185:
.LBB7186:
	.loc 4 183 0
	mulps	%xmm1, %xmm5
	addps	%xmm5, %xmm6
.LVL761:
.LBE7186:
.LBE7185:
.LBB7187:
.LBB7188:
	.loc 3 767 0
	cvtdq2ps	%xmm8, %xmm5
.LVL762:
.LBE7188:
.LBE7187:
.LBB7189:
.LBB7190:
	.loc 4 183 0
	mulps	%xmm1, %xmm5
.LBE7190:
.LBE7189:
.LBB7192:
.LBB7193:
	mulps	%xmm2, %xmm1
.LBE7193:
.LBE7192:
.LBB7195:
.LBB7191:
	addps	%xmm5, %xmm7
.LVL763:
.LBE7191:
.LBE7195:
.LBB7196:
.LBB7194:
	addps	%xmm1, %xmm0
.LVL764:
.LBE7194:
.LBE7196:
.LBE7197:
.LBE7283:
	.loc 1 466 0
	je	.L313
.LVL765:
.L401:
	movl	72(%r15), %r9d
.LBB7284:
	.loc 1 467 0
	addl	$1, %r8d
.LVL766:
	subl	%r8d, %r9d
	cmpl	%ebx, %r9d
	jle	.L400
.LVL767:
.L316:
.LBB7198:
.LBB7199:
.LBB7200:
	.loc 3 698 0
	movl	76(%r15), %r9d
.LBE7200:
.LBE7199:
.LBB7202:
.LBB7203:
.LBB7204:
.LBB7205:
	.loc 4 884 0
	movss	(%r11), %xmm1
.LVL768:
	addq	$4, %r11
.LBE7205:
.LBE7204:
.LBE7203:
.LBE7202:
.LBB7206:
.LBB7207:
	.loc 4 743 0
	shufps	$0, %xmm1, %xmm1
.LVL769:
.LBE7207:
.LBE7206:
.LBB7208:
.LBB7201:
	.loc 3 698 0
	imull	%r8d, %r9d
	movslq	%r9d, %r9
	movdqu	(%rsi,%r9), %xmm2
.LVL770:
.LBE7201:
.LBE7208:
.LBB7209:
.LBB7210:
	.loc 3 965 0
	movdqa	%xmm2, %xmm5
.LBE7210:
.LBE7209:
.LBB7212:
.LBB7213:
	.loc 3 989 0
	punpcklbw	%xmm4, %xmm2
.LVL771:
.LBE7213:
.LBE7212:
.LBB7214:
.LBB7211:
	.loc 3 965 0
	punpckhbw	%xmm4, %xmm5
.LVL772:
.LBE7211:
.LBE7214:
.LBB7215:
.LBB7216:
	.loc 3 971 0
	movdqa	%xmm2, %xmm8
.LBE7216:
.LBE7215:
.LBB7218:
.LBB7219:
	.loc 3 995 0
	movdqa	%xmm5, %xmm9
.LBE7219:
.LBE7218:
.LBB7221:
.LBB7222:
	.loc 3 971 0
	punpckhwd	%xmm4, %xmm5
.LVL773:
.LBE7222:
.LBE7221:
.LBB7223:
.LBB7217:
	punpckhwd	%xmm4, %xmm8
.LVL774:
.LBE7217:
.LBE7223:
.LBB7224:
.LBB7220:
	.loc 3 995 0
	punpcklwd	%xmm4, %xmm9
.LBE7220:
.LBE7224:
.LBB7225:
.LBB7226:
	.loc 3 767 0
	cvtdq2ps	%xmm5, %xmm5
.LBE7226:
.LBE7225:
.LBB7227:
.LBB7228:
	.loc 4 183 0
	mulps	%xmm1, %xmm5
.LBE7228:
.LBE7227:
.LBB7230:
.LBB7231:
	.loc 3 995 0
	punpcklwd	%xmm4, %xmm2
.LVL775:
.LBE7231:
.LBE7230:
.LBB7232:
.LBB7229:
	.loc 4 183 0
	addps	%xmm5, %xmm3
.LVL776:
.LBE7229:
.LBE7232:
.LBB7233:
.LBB7234:
	.loc 3 767 0
	cvtdq2ps	%xmm9, %xmm5
.LVL777:
.LBE7234:
.LBE7233:
.LBB7235:
.LBB7236:
	cvtdq2ps	%xmm2, %xmm2
.LVL778:
.LBE7236:
.LBE7235:
.LBB7237:
.LBB7238:
	.loc 4 183 0
	mulps	%xmm1, %xmm5
.LBE7238:
.LBE7237:
.LBB7240:
.LBB7241:
	.loc 4 931 0
	movups	48(%rax,%r9,4), %xmm9
.LVL779:
.LBE7241:
.LBE7240:
.LBB7242:
.LBB7239:
	.loc 4 183 0
	addps	%xmm5, %xmm6
.LVL780:
.LBE7239:
.LBE7242:
.LBB7243:
.LBB7244:
	.loc 3 767 0
	cvtdq2ps	%xmm8, %xmm5
.LVL781:
.LBE7244:
.LBE7243:
.LBB7245:
.LBB7246:
	.loc 4 183 0
	mulps	%xmm1, %xmm5
.LBE7246:
.LBE7245:
.LBB7248:
.LBB7249:
	.loc 4 931 0
	movups	32(%rax,%r9,4), %xmm8
.LVL782:
.LBE7249:
.LBE7248:
.LBB7250:
.LBB7251:
	.loc 4 183 0
	mulps	%xmm2, %xmm1
.LVL783:
.LBE7251:
.LBE7250:
.LBB7253:
.LBB7254:
	.loc 4 931 0
	movups	(%rax,%r9,4), %xmm2
.LBE7254:
.LBE7253:
.LBB7255:
.LBB7247:
	.loc 4 183 0
	addps	%xmm5, %xmm7
.LVL784:
.LBE7247:
.LBE7255:
.LBB7256:
.LBB7257:
	.loc 4 931 0
	movups	16(%rax,%r9,4), %xmm5
.LBE7257:
.LBE7256:
.LBB7258:
.LBB7252:
	.loc 4 183 0
	addps	%xmm1, %xmm0
.LVL785:
.LBE7252:
.LBE7258:
.LBB7259:
.LBB7260:
.LBB7261:
.LBB7262:
	.loc 4 884 0
	movss	-36(%r11), %xmm1
.LVL786:
.LBE7262:
.LBE7261:
.LBE7260:
.LBE7259:
.LBE7198:
.LBE7284:
	.loc 1 466 0
	cmpl	$4, %r8d
.LBB7285:
.LBB7281:
.LBB7263:
.LBB7264:
	.loc 4 743 0
	shufps	$0, %xmm1, %xmm1
.LVL787:
.LBE7264:
.LBE7263:
.LBB7265:
.LBB7266:
	.loc 4 189 0
	mulps	%xmm1, %xmm9
.LVL788:
.LBE7266:
.LBE7265:
.LBB7268:
.LBB7269:
	mulps	%xmm1, %xmm8
.LVL789:
.LBE7269:
.LBE7268:
.LBB7271:
.LBB7272:
	mulps	%xmm1, %xmm5
.LVL790:
.LBE7272:
.LBE7271:
.LBB7274:
.LBB7267:
	subps	%xmm9, %xmm3
.LBE7267:
.LBE7274:
.LBB7275:
.LBB7276:
	mulps	%xmm2, %xmm1
.LVL791:
.LBE7276:
.LBE7275:
.LBB7278:
.LBB7270:
	subps	%xmm8, %xmm6
.LBE7270:
.LBE7278:
.LBB7279:
.LBB7273:
	subps	%xmm5, %xmm7
.LBE7273:
.LBE7279:
.LBB7280:
.LBB7277:
	subps	%xmm1, %xmm0
.LVL792:
.LBE7277:
.LBE7280:
.LBE7281:
.LBE7285:
	.loc 1 466 0
	jne	.L401
.LVL793:
.L313:
.LBE7286:
.LBB7287:
.LBB7288:
	.loc 4 980 0
	movups	%xmm0, (%rax)
.LVL794:
.LBE7288:
.LBE7287:
.LBE7319:
	.loc 1 463 0
	addl	$16, %edi
.LVL795:
	addq	$16, %rsi
.LVL796:
	addq	$16, %rcx
.LVL797:
.LBB7320:
.LBB7289:
.LBB7290:
	.loc 4 980 0
	movups	%xmm7, 16(%rax)
.LVL798:
.LBE7290:
.LBE7289:
.LBE7320:
	.loc 1 463 0
	addq	$64, %rdx
.LVL799:
	addq	$64, %rax
.LVL800:
.LBB7321:
.LBB7291:
.LBB7292:
	.loc 4 980 0
	movups	%xmm6, -32(%rax)
.LVL801:
.LBE7292:
.LBE7291:
.LBB7293:
.LBB7294:
	movups	%xmm3, -16(%rax)
.LVL802:
.LBE7294:
.LBE7293:
.LBB7295:
.LBB7296:
	.loc 4 931 0
	movups	-16(%rdx), %xmm1
.LVL803:
.LBE7296:
.LBE7295:
.LBB7297:
.LBB7298:
	movups	-32(%rdx), %xmm2
.LVL804:
.LBE7298:
.LBE7297:
.LBB7299:
.LBB7300:
	.loc 4 980 0
	addps	%xmm1, %xmm3
.LBE7300:
.LBE7299:
.LBB7302:
.LBB7303:
	.loc 4 931 0
	movups	-48(%rdx), %xmm4
.LVL805:
.LBE7303:
.LBE7302:
.LBB7304:
.LBB7305:
	.loc 4 980 0
	addps	%xmm2, %xmm6
.LBE7305:
.LBE7304:
.LBB7307:
.LBB7308:
	.loc 4 931 0
	movups	-64(%rdx), %xmm5
.LVL806:
.LBE7308:
.LBE7307:
.LBB7309:
.LBB7310:
	.loc 4 980 0
	addps	%xmm4, %xmm7
.LBE7310:
.LBE7309:
.LBB7312:
.LBB7301:
	movups	%xmm3, -16(%rdx)
.LBE7301:
.LBE7312:
.LBB7313:
.LBB7314:
	addps	%xmm5, %xmm0
.LBE7314:
.LBE7313:
.LBB7316:
.LBB7306:
	movups	%xmm6, -32(%rdx)
.LBE7306:
.LBE7316:
.LBB7317:
.LBB7311:
	movups	%xmm7, -48(%rdx)
.LBE7311:
.LBE7317:
.LBB7318:
.LBB7315:
	movups	%xmm0, -64(%rdx)
.LVL807:
.LBE7315:
.LBE7318:
.LBE7321:
	.loc 1 463 0
	cmpl	%edi, %r12d
	jle	.L299
	leal	(%rdi,%r10), %r9d
	.loc 1 463 0 is_stmt 0 discriminator 1
	movl	76(%r15), %r8d
.LVL808:
	leal	-15(%r8), %r11d
	cmpl	%r9d, %r11d
	jle	.L300
	movl	72(%r15), %r9d
	jmp	.L301
.LVL809:
	.p2align 4,,10
	.p2align 3
.L387:
	movq	-208(%rbp), %r15
.LVL810:
.L299:
.LBE7150:
.LBE7143:
	.loc 1 457 0 is_stmt 1
	subl	$1, %ebx
.LVL811:
	subq	$1, -200(%rbp)
	cmpl	$-1, %ebx
	je	.L302
	movl	72(%r15), %r9d
	movq	-200(%rbp), %r8
	leal	-1(%r9), %edx
.LVL812:
	jmp	.L378
.LVL813:
.L358:
.LBB7329:
.LBB7322:
	.loc 1 463 0
	movl	-172(%rbp), %r9d
.LBE7322:
	.loc 1 462 0
	xorl	%edi, %edi
.LVL814:
	.p2align 4,,10
	.p2align 3
.L300:
.LBB7323:
	.loc 1 525 0
	cmpl	%r8d, %r9d
	jge	.L299
	movl	72(%r15), %r9d
	movq	%r15, -208(%rbp)
	movl	%r8d, -112(%rbp)
	leal	-1(%r9), %r11d
	leal	-2(%r9), %r13d
	movl	%r11d, -88(%rbp)
	leal	-3(%r9), %r11d
	movl	%r11d, -104(%rbp)
	leal	-4(%r9), %r11d
	movl	%r11d, -212(%rbp)
.LBB7324:
.LBB7325:
	.loc 1 528 0
	movslq	%r8d, %r11
	movl	-212(%rbp), %r15d
	leaq	0(,%r11,4), %r9
	movq	%r11, -120(%rbp)
	movq	%r9, -128(%rbp)
	leal	(%r8,%r8), %r9d
	movslq	%r9d, %r11
	addl	%r8d, %r9d
	movq	%r11, -136(%rbp)
	salq	$2, %r11
	movq	%r11, -144(%rbp)
	movslq	%r9d, %r11
	leaq	0(,%r11,4), %r9
	movq	%r11, -152(%rbp)
	leal	0(,%r8,4), %r11d
	movslq	%r11d, %r11
	movq	%r9, -160(%rbp)
	leaq	0(,%r11,4), %r9
	addq	%r11, %rsi
.LVL815:
	movq	%r9, -168(%rbp)
	jmp	.L355
.LVL816:
	.p2align 4,,10
	.p2align 3
.L402:
	movq	-120(%rbp), %r8
	movq	%rsi, %r9
	subq	%r11, %r9
	pxor	%xmm2, %xmm2
	movss	64(%r14), %xmm0
	.loc 1 527 0
	cmpl	%r13d, %ebx
	.loc 1 528 0
	movzbl	(%r9,%r8), %r9d
	movq	-128(%rbp), %r8
	movss	(%rax), %xmm3
	mulss	(%rax,%r8), %xmm0
	cvtsi2ss	%r9d, %xmm2
	mulss	96(%r14), %xmm2
	subss	%xmm0, %xmm2
	addss	%xmm2, %xmm3
	movss	%xmm3, (%rax)
.LVL817:
	.loc 1 527 0
	jge	.L306
.L403:
	.loc 1 528 0
	movq	-136(%rbp), %r8
	movq	%rsi, %r9
	subq	%r11, %r9
	pxor	%xmm1, %xmm1
	movss	68(%r14), %xmm0
	.loc 1 527 0
	cmpl	-104(%rbp), %ebx
	.loc 1 528 0
	movzbl	(%r9,%r8), %r9d
	movq	-144(%rbp), %r8
	mulss	(%rax,%r8), %xmm0
	cvtsi2ss	%r9d, %xmm1
	mulss	100(%r14), %xmm1
	subss	%xmm0, %xmm1
	movaps	%xmm1, %xmm2
	addss	%xmm3, %xmm2
	movss	%xmm2, (%rax)
.LVL818:
	.loc 1 527 0
	jge	.L308
.L404:
	.loc 1 528 0
	movq	-152(%rbp), %r8
	movq	%rsi, %r9
	subq	%r11, %r9
	pxor	%xmm0, %xmm0
	movss	72(%r14), %xmm1
	.loc 1 527 0
	cmpl	%r15d, %ebx
	.loc 1 528 0
	movzbl	(%r9,%r8), %r9d
	movq	-160(%rbp), %r8
	mulss	(%rax,%r8), %xmm1
	cvtsi2ss	%r9d, %xmm0
	mulss	104(%r14), %xmm0
	subss	%xmm1, %xmm0
	movaps	%xmm0, %xmm1
	addss	%xmm2, %xmm1
	movss	%xmm1, (%rax)
.LVL819:
	.loc 1 527 0
	jge	.L310
.L405:
	.loc 1 528 0
	movzbl	(%rsi), %r9d
	pxor	%xmm0, %xmm0
	movq	-168(%rbp), %r8
	movss	76(%r14), %xmm2
	cvtsi2ss	%r9d, %xmm0
	mulss	(%rax,%r8), %xmm2
	mulss	108(%r14), %xmm0
	subss	%xmm2, %xmm0
	addss	%xmm1, %xmm0
.L311:
	movss	%xmm0, (%rax)
.LVL820:
.LBE7325:
.LBE7324:
	.loc 1 525 0
	addl	$1, %edi
.LVL821:
	addq	$1, %rcx
.LVL822:
	addq	$4, %rax
.LVL823:
	addq	$4, %rdx
.LVL824:
.LBB7327:
	.loc 1 533 0
	addss	-4(%rdx), %xmm0
	movss	%xmm0, -4(%rdx)
.LVL825:
.LBE7327:
	.loc 1 525 0
	cmpl	%edi, %r12d
	jle	.L387
	addq	$1, %rsi
.LVL826:
	.loc 1 525 0 is_stmt 0 discriminator 1
	leal	(%rdi,%r10), %r9d
	cmpl	-112(%rbp), %r9d
	jge	.L387
.LVL827:
.L355:
.LBB7328:
.LBB7326:
	.loc 1 527 0 is_stmt 1 discriminator 1
	cmpl	-88(%rbp), %ebx
	jl	.L402
	.loc 1 530 0
	movzbl	(%rcx), %r9d
	pxor	%xmm0, %xmm0
	movss	96(%r14), %xmm2
	.loc 1 527 0
	cmpl	%r13d, %ebx
	.loc 1 530 0
	subss	64(%r14), %xmm2
	movss	(%rax), %xmm3
	cvtsi2ss	%r9d, %xmm0
	mulss	%xmm0, %xmm2
	addss	%xmm2, %xmm3
	movss	%xmm3, (%rax)
.LVL828:
	.loc 1 527 0
	jl	.L403
.L306:
	.loc 1 530 0
	movzbl	(%rcx), %r9d
	pxor	%xmm0, %xmm0
	movss	100(%r14), %xmm1
	subss	68(%r14), %xmm1
	.loc 1 527 0
	cmpl	-104(%rbp), %ebx
	.loc 1 530 0
	cvtsi2ss	%r9d, %xmm0
	mulss	%xmm0, %xmm1
	movaps	%xmm1, %xmm2
	addss	%xmm3, %xmm2
	movss	%xmm2, (%rax)
.LVL829:
	.loc 1 527 0
	jl	.L404
.L308:
	.loc 1 530 0
	movzbl	(%rcx), %r9d
	pxor	%xmm3, %xmm3
	movss	104(%r14), %xmm0
	.loc 1 527 0
	cmpl	%r15d, %ebx
	.loc 1 530 0
	subss	72(%r14), %xmm0
	cvtsi2ss	%r9d, %xmm3
	mulss	%xmm3, %xmm0
	movaps	%xmm0, %xmm1
	addss	%xmm2, %xmm1
	movss	%xmm1, (%rax)
.LVL830:
	.loc 1 527 0
	jl	.L405
.L310:
	.loc 1 530 0
	movzbl	(%rcx), %r9d
	pxor	%xmm2, %xmm2
	movss	108(%r14), %xmm0
	subss	76(%r14), %xmm0
	cvtsi2ss	%r9d, %xmm2
	mulss	%xmm2, %xmm0
	addss	%xmm1, %xmm0
	jmp	.L311
.LVL831:
	.p2align 4,,10
	.p2align 3
.L393:
	movq	-112(%rbp), %r15
	movl	72(%r15), %r9d
.LVL832:
	jmp	.L318
.LVL833:
.L302:
	movl	-96(%rbp), %edi
	addl	%edi, -172(%rbp)
	movq	-248(%rbp), %rbx
.LVL834:
	movl	-172(%rbp), %eax
.LVL835:
	addq	%rbx, -192(%rbp)
	addl	%edi, -176(%rbp)
	movq	-240(%rbp), %rbx
	addq	%rbx, -184(%rbp)
	cmpl	%eax, -216(%rbp)
	jg	.L297
	leaq	-64(%rbp), %rsi
	leaq	-72(%rbp), %rdi
	movq	%r14, %r13
	movq	%r15, %r14
	call	GOMP_loop_dynamic_next
.LVL836:
	testb	%al, %al
	jne	.L298
	movq	%r15, %r10
	movq	%r13, %r14
.LVL837:
.L294:
	movq	%r10, -88(%rbp)
	call	GOMP_loop_end
.LVL838:
.LBE7326:
.LBE7328:
.LBE7323:
.LBE7329:
.LBE7142:
.LBE7030:
.LBE7029:
.LBB7332:
	.loc 1 539 0
	movq	-88(%rbp), %r10
	movl	72(%r10), %eax
	movq	%r10, -96(%rbp)
	movl	%eax, %r15d
	movl	%eax, -172(%rbp)
	addl	$3, %eax
	testl	%r15d, %r15d
	cmovns	%r15d, %eax
	sarl	$2, %eax
	movl	%eax, %ebx
	call	omp_get_num_threads
.LVL839:
	movl	%eax, %r12d
	call	omp_get_thread_num
.LVL840:
	movl	%ebx, %edi
	imull	%eax, %edi
	leal	(%rdi,%rbx), %edx
	movl	%edi, %esi
	movl	%edi, -88(%rbp)
	cmpl	%r15d, %edx
	cmovg	%r15d, %edx
	cmpl	%r15d, %esi
	movl	%edx, -152(%rbp)
	jge	.L344
	movslq	%eax, %rdi
	addl	%r12d, %eax
	movq	-96(%rbp), %r10
	movq	%rdi, -160(%rbp)
	movl	%ebx, %edi
	imull	%r12d, %edi
	movq	%r10, %r15
	movl	%edi, -184(%rbp)
	movl	%eax, %edi
	addl	$1, %eax
	imull	%ebx, %edi
	imull	%ebx, %eax
	movl	%edi, -168(%rbp)
	subl	%edi, %eax
	movl	%eax, -192(%rbp)
.L348:
	movslq	-88(%rbp), %r8
.L347:
.LVL841:
.LBB7333:
.LBB7334:
	.loc 1 543 0
	movl	76(%r15), %eax
	.loc 1 605 0
	movq	%rsp, -96(%rbp)
.LVL842:
.LBB7335:
.LBB7336:
	.loc 2 430 0
	movq	%r8, %rdi
.LBE7336:
.LBE7335:
.LBB7341:
.LBB7342:
	movq	-160(%rbp), %r10
.LBE7342:
.LBE7341:
.LBB7344:
.LBB7345:
	movq	%r8, %r13
.LBE7345:
.LBE7344:
.LBB7350:
.LBB7351:
	.loc 5 90 0
	xorl	%esi, %esi
.LBE7351:
.LBE7350:
.LBB7354:
.LBB7346:
	.loc 2 430 0
	movq	%r8, -144(%rbp)
.LBE7346:
.LBE7354:
	.loc 1 543 0
	addl	$16, %eax
	cltq
	leaq	18(,%rax,4), %rax
	andq	$-16, %rax
	subq	%rax, %rsp
	.loc 1 545 0
	movq	48(%r15), %rax
	.loc 1 543 0
	leaq	3(%rsp), %r9
.LBB7355:
.LBB7337:
	.loc 2 430 0
	movq	72(%rax), %rdx
.LBE7337:
.LBE7355:
	.loc 1 543 0
	shrq	$2, %r9
	leaq	0(,%r9,4), %r12
.LVL843:
	movq	%r9, -136(%rbp)
.LBB7356:
.LBB7338:
	.loc 2 430 0
	imulq	(%rdx), %rdi
.LBE7338:
.LBE7356:
	.loc 1 552 0
	addq	$32, %r12
.LVL844:
.LBB7357:
.LBB7339:
	.loc 2 430 0
	movq	%rdi, %rdx
	addq	16(%rax), %rdx
.LBE7339:
.LBE7357:
	.loc 1 546 0
	movq	56(%r15), %rax
.LVL845:
.LBB7358:
.LBB7340:
	.loc 2 430 0
	movq	%rdx, -104(%rbp)
.LBE7340:
.LBE7358:
.LBB7359:
.LBB7343:
	movq	72(%rax), %rdx
	imulq	(%rdx), %r10
	addq	16(%rax), %r10
.LVL846:
.LBE7343:
.LBE7359:
	.loc 1 547 0
	movq	40(%r15), %rax
.LVL847:
.LBB7360:
.LBB7347:
	.loc 2 430 0
	movq	72(%rax), %rdx
.LBE7347:
.LBE7360:
	.loc 1 551 0
	leaq	32(%r10), %rbx
	movq	%r10, -128(%rbp)
.LBB7361:
.LBB7348:
	.loc 2 430 0
	imulq	(%rdx), %r13
.LBE7348:
.LBE7361:
.LBB7362:
.LBB7352:
	.loc 5 90 0
	movq	%rbx, %rdi
.LBE7352:
.LBE7362:
.LBB7363:
.LBB7349:
	.loc 2 430 0
	addq	16(%rax), %r13
.LVL848:
	movq	0(,%r9,4), %rax
.LVL849:
.LBE7349:
.LBE7363:
.LBB7364:
.LBB7365:
	.loc 5 53 0
	movq	%rax, 8(%r10)
.LVL850:
.LBE7365:
.LBE7364:
.LBB7366:
.LBB7367:
	movq	%rax, (%r10)
.LVL851:
.LBE7367:
.LBE7366:
.LBB7368:
.LBB7369:
	movq	8(%r10), %rdx
	movq	(%r10), %rax
	movq	%rdx, 24(%r10)
.LVL852:
	movq	%rax, 16(%r10)
.LVL853:
.LBE7369:
.LBE7368:
.LBB7370:
.LBB7353:
	.loc 5 90 0
	movslq	76(%r15), %rdx
	salq	$2, %rdx
	call	memset
.LVL854:
.LBE7353:
.LBE7370:
	.loc 1 552 0
	movslq	76(%r15), %rcx
.LBB7371:
.LBB7372:
	.loc 5 53 0
	movq	-104(%rbp), %rsi
	movq	%r12, %rdi
	leaq	0(,%rcx,4), %rdx
.LBE7372:
.LBE7371:
	.loc 1 552 0
	movl	%ecx, -120(%rbp)
.LVL855:
.LBB7374:
.LBB7373:
	.loc 5 53 0
	movq	%rcx, -112(%rbp)
	call	memcpy
.LVL856:
.LBE7373:
.LBE7374:
.LBB7375:
.LBB7376:
	movq	-128(%rbp), %r10
	movq	-136(%rbp), %r9
.LBE7376:
.LBE7375:
.LBB7379:
	.loc 1 556 0
	movl	-120(%rbp), %r11d
	movq	-112(%rbp), %rcx
	movq	-144(%rbp), %r8
.LBE7379:
.LBB7412:
.LBB7377:
	.loc 5 53 0
	movq	(%r10), %rax
.LBE7377:
.LBE7412:
.LBB7413:
	.loc 1 556 0
	testl	%r11d, %r11d
.LBE7413:
.LBB7414:
.LBB7378:
	.loc 5 53 0
	movq	%rax, 0(,%r9,4)
	movq	8(%r10), %rax
	movq	%rax, 8(,%r9,4)
	movq	16(%r10), %rax
	movq	%rax, 16(,%r9,4)
	movq	24(%r10), %rax
	movq	%rax, 24(,%r9,4)
.LVL857:
.LBE7378:
.LBE7414:
.LBB7415:
	.loc 1 556 0
	jle	.L406
	movss	24(,%r9,4), %xmm1
	.loc 1 556 0 is_stmt 0 discriminator 2
	xorl	%esi, %esi
	movss	28(,%r9,4), %xmm5
	movss	8(,%r9,4), %xmm0
	movss	12(,%r9,4), %xmm4
.LVL858:
	.p2align 4,,10
	.p2align 3
.L353:
.LBB7380:
	.loc 1 567 0 is_stmt 1 discriminator 2
	movss	-16(%r12), %xmm2
.LBB7381:
.LBB7382:
	.loc 4 946 0 discriminator 2
	movaps	%xmm2, %xmm6
.LBE7382:
.LBE7381:
	.loc 1 567 0 discriminator 2
	movss	(%r12), %xmm3
.LBB7385:
.LBB7383:
	.loc 4 946 0 discriminator 2
	unpcklps	%xmm0, %xmm6
	movaps	%xmm3, %xmm0
	unpcklps	%xmm1, %xmm0
.LBE7383:
.LBE7385:
.LBB7386:
.LBB7387:
	movss	-8(%rbx), %xmm1
	insertps	$0x10, -16(%rbx), %xmm1
.LBE7387:
.LBE7386:
.LBB7390:
.LBB7384:
	movlhps	%xmm6, %xmm0
.LBE7384:
.LBE7390:
.LBB7391:
.LBB7388:
	movss	-24(%rbx), %xmm6
	insertps	$0x10, -32(%rbx), %xmm6
.LBE7388:
.LBE7391:
.LBB7392:
.LBB7393:
	.loc 4 189 0 discriminator 2
	mulps	32(%r14), %xmm0
.LBE7393:
.LBE7392:
.LBB7395:
.LBB7389:
	.loc 4 946 0 discriminator 2
	movlhps	%xmm6, %xmm1
.LBE7389:
.LBE7395:
.LBB7396:
.LBB7394:
	.loc 4 189 0 discriminator 2
	mulps	16(%r14), %xmm1
	subps	%xmm1, %xmm0
	movaps	%xmm5, %xmm1
	movaps	%xmm3, %xmm5
.LBE7394:
.LBE7396:
.LBB7397:
.LBB7398:
	.loc 7 58 0 discriminator 2
	haddps	%xmm0, %xmm0
.LBE7398:
.LBE7397:
.LBB7399:
.LBB7400:
	haddps	%xmm0, %xmm0
.LBE7400:
.LBE7399:
.LBB7401:
.LBB7402:
	.loc 4 960 0 discriminator 2
	movss	%xmm0, (%rbx)
.LBE7402:
.LBE7401:
.LBB7403:
.LBB7404:
.LBB7405:
.LBB7406:
.LBB7407:
.LBB7408:
	.loc 3 63 0 discriminator 2
	cvtss2sd	%xmm0, %xmm0
.LBE7408:
.LBE7407:
.LBB7409:
.LBB7410:
	.loc 3 827 0 discriminator 2
	cvtsd2si	%xmm0, %edx
	movaps	%xmm4, %xmm0
	movaps	%xmm2, %xmm4
.LBE7410:
.LBE7409:
.LBE7406:
.LBE7405:
.LBE7404:
.LBE7403:
	.loc 1 575 0 discriminator 2
	testl	%edx, %edx
	setg	%al
	negl	%eax
	cmpl	$255, %edx
	cmovbe	%edx, %eax
.LBE7380:
	.loc 1 556 0 discriminator 2
	addl	$1, %esi
.LVL859:
	addq	$4, %r12
.LVL860:
.LBB7411:
	.loc 1 575 0 discriminator 2
	movb	%al, 0(%r13)
.LBE7411:
	.loc 1 556 0 discriminator 2
	movslq	76(%r15), %rax
	addq	$4, %rbx
.LVL861:
	addq	$1, %r13
.LVL862:
	cmpl	%esi, %eax
	jg	.L353
.LVL863:
.L354:
.LBE7415:
	.loc 1 577 0
	movq	40(%r15), %rdx
.LVL864:
	movq	%r8, %rdi
	movq	%r8, -104(%rbp)
.LBB7416:
.LBB7417:
	.loc 2 430 0
	movq	72(%rdx), %rsi
.LBE7417:
.LBE7416:
	.loc 1 577 0
	imulq	(%rsi), %rdi
.LBB7418:
.LBB7419:
	.loc 5 90 0
	xorl	%esi, %esi
.LBE7419:
.LBE7418:
	.loc 1 577 0
	leaq	-1(%rax,%rdi), %r13
.LVL865:
	movq	-8(%r12), %rax
	addq	16(%rdx), %r13
.LVL866:
.LBB7422:
.LBB7420:
	.loc 5 90 0
	movq	%rbx, %rdi
.LBE7420:
.LBE7422:
	.loc 1 584 0
	subq	$4, %rbx
.LVL867:
.LBB7423:
.LBB7424:
	.loc 5 53 0
	movq	%rax, 12(%rbx)
.LBE7424:
.LBE7423:
.LBB7425:
.LBB7426:
	movq	%rax, 4(%rbx)
.LVL868:
.LBE7426:
.LBE7425:
.LBB7427:
.LBB7428:
	movq	12(%rbx), %rdx
.LVL869:
	movq	4(%rbx), %rax
	movq	%rdx, 28(%rbx)
.LVL870:
	movq	%rax, 20(%rbx)
.LBE7428:
.LBE7427:
	.loc 1 581 0
	movslq	76(%r15), %rdx
	salq	$2, %rdx
.LVL871:
.LBB7429:
.LBB7421:
	.loc 5 90 0
	subq	%rdx, %rdi
.LVL872:
	call	memset
.LVL873:
.LBE7421:
.LBE7429:
.LBB7430:
.LBB7431:
	.loc 5 53 0
	movq	4(%rbx), %rax
.LBE7431:
.LBE7430:
	.loc 1 583 0
	leaq	-4(%r12), %rdx
.LBB7433:
	.loc 1 585 0
	movq	-104(%rbp), %r8
.LBE7433:
.LBB7590:
.LBB7432:
	.loc 5 53 0
	movq	%rax, (%r12)
	movq	12(%rbx), %rax
	movq	%rax, 8(%r12)
	movq	20(%rbx), %rax
	movq	%rax, 16(%r12)
	movq	28(%rbx), %rax
	movq	%rax, 24(%r12)
.LVL874:
.LBE7432:
.LBE7590:
.LBB7591:
	.loc 1 585 0
	movl	76(%r15), %eax
.LVL875:
	movl	%eax, %esi
	subl	$1, %esi
.LVL876:
	js	.L351
	cmpl	$3, %eax
	jle	.L352
	movss	12(%r12), %xmm3
	movss	8(%r12), %xmm5
	movss	28(%r12), %xmm2
	movss	24(%r12), %xmm4
.LVL877:
	.p2align 4,,10
	.p2align 3
.L350:
.LBB7434:
	.loc 1 596 0 discriminator 2
	movss	8(%rdx), %xmm6
	movss	24(%rdx), %xmm7
.LBB7435:
.LBB7436:
	.loc 4 946 0 discriminator 2
	movaps	%xmm6, %xmm0
	movaps	%xmm7, %xmm1
	unpcklps	%xmm3, %xmm0
.LBE7436:
.LBE7435:
	.loc 1 596 0 discriminator 2
	movss	4(%rdx), %xmm3
.LBB7447:
.LBB7437:
	.loc 4 946 0 discriminator 2
	unpcklps	%xmm2, %xmm1
.LBE7437:
.LBE7447:
.LBB7448:
.LBB7449:
	movss	24(%rbx), %xmm2
	insertps	$0x10, 32(%rbx), %xmm2
.LBE7449:
.LBE7448:
.LBB7460:
.LBB7438:
	movlhps	%xmm1, %xmm0
.LBE7438:
.LBE7460:
.LBB7461:
.LBB7450:
	movss	8(%rbx), %xmm1
	insertps	$0x10, 16(%rbx), %xmm1
.LBE7450:
.LBE7461:
.LBB7462:
.LBB7463:
	.loc 4 189 0 discriminator 2
	mulps	48(%r14), %xmm0
.LBE7463:
.LBE7462:
.LBB7471:
.LBB7451:
	.loc 4 946 0 discriminator 2
	movlhps	%xmm2, %xmm1
.LBE7451:
.LBE7471:
	.loc 1 596 0 discriminator 2
	movss	20(%rdx), %xmm2
.LBB7472:
.LBB7464:
	.loc 4 189 0 discriminator 2
	mulps	16(%r14), %xmm1
	subps	%xmm1, %xmm0
.LBE7464:
.LBE7472:
.LBB7473:
.LBB7474:
.LBB7475:
.LBB7476:
.LBB7477:
.LBB7478:
	.loc 3 63 0 discriminator 2
	pxor	%xmm1, %xmm1
.LBE7478:
.LBE7477:
.LBE7476:
.LBE7475:
.LBE7474:
.LBE7473:
.LBB7532:
.LBB7533:
	.loc 7 58 0 discriminator 2
	haddps	%xmm0, %xmm0
.LBE7533:
.LBE7532:
.LBB7537:
.LBB7538:
	haddps	%xmm0, %xmm0
.LBE7538:
.LBE7537:
.LBB7542:
.LBB7543:
	.loc 4 960 0 discriminator 2
	movss	%xmm0, (%rbx)
.LBE7543:
.LBE7542:
.LBB7547:
.LBB7523:
.LBB7514:
.LBB7505:
.LBB7488:
.LBB7479:
	.loc 3 63 0 discriminator 2
	movzbl	0(%r13), %eax
	cvtsi2ss	%eax, %xmm1
	addss	%xmm1, %xmm0
.LBE7479:
.LBE7488:
.LBE7505:
.LBE7514:
.LBE7523:
.LBE7547:
.LBB7548:
.LBB7439:
	.loc 4 946 0 discriminator 2
	movaps	%xmm2, %xmm1
	unpcklps	%xmm4, %xmm1
.LBE7439:
.LBE7548:
.LBB7549:
.LBB7524:
.LBB7515:
.LBB7506:
.LBB7489:
.LBB7480:
	.loc 3 63 0 discriminator 2
	cvtss2sd	%xmm0, %xmm0
.LBE7480:
.LBE7489:
.LBB7490:
.LBB7491:
	.loc 3 827 0 discriminator 2
	cvtsd2si	%xmm0, %ecx
.LBE7491:
.LBE7490:
.LBE7506:
.LBE7515:
.LBE7524:
.LBE7549:
.LBB7550:
.LBB7440:
	.loc 4 946 0 discriminator 2
	movaps	%xmm3, %xmm0
	unpcklps	%xmm5, %xmm0
.LBE7440:
.LBE7550:
	.loc 1 596 0 discriminator 2
	movss	(%rdx), %xmm5
.LBB7551:
.LBB7441:
	.loc 4 946 0 discriminator 2
	movlhps	%xmm1, %xmm0
.LBE7441:
.LBE7551:
	.loc 1 604 0 discriminator 2
	testl	%ecx, %ecx
	setg	%al
	negl	%eax
	cmpl	$255, %ecx
	cmovbe	%ecx, %eax
	movb	%al, 0(%r13)
.LBB7552:
.LBB7452:
	.loc 4 946 0 discriminator 2
	movss	20(%rbx), %xmm4
	movss	4(%rbx), %xmm1
	insertps	$0x10, 28(%rbx), %xmm4
	insertps	$0x10, 12(%rbx), %xmm1
.LBE7452:
.LBE7552:
.LBB7553:
.LBB7465:
	.loc 4 189 0 discriminator 2
	mulps	48(%r14), %xmm0
.LBE7465:
.LBE7553:
.LBB7554:
.LBB7453:
	.loc 4 946 0 discriminator 2
	movlhps	%xmm4, %xmm1
.LBE7453:
.LBE7554:
	.loc 1 596 0 discriminator 2
	movss	16(%rdx), %xmm4
.LBB7555:
.LBB7466:
	.loc 4 189 0 discriminator 2
	mulps	16(%r14), %xmm1
	subps	%xmm1, %xmm0
.LBE7466:
.LBE7555:
.LBB7556:
.LBB7525:
.LBB7516:
.LBB7507:
.LBB7495:
.LBB7481:
	.loc 3 63 0 discriminator 2
	pxor	%xmm1, %xmm1
.LBE7481:
.LBE7495:
.LBE7507:
.LBE7516:
.LBE7525:
.LBE7556:
.LBB7557:
.LBB7534:
	.loc 7 58 0 discriminator 2
	haddps	%xmm0, %xmm0
.LBE7534:
.LBE7557:
.LBB7558:
.LBB7539:
	haddps	%xmm0, %xmm0
.LBE7539:
.LBE7558:
.LBB7559:
.LBB7544:
	.loc 4 960 0 discriminator 2
	movss	%xmm0, -4(%rbx)
.LBE7544:
.LBE7559:
.LBB7560:
.LBB7526:
.LBB7517:
.LBB7508:
.LBB7496:
.LBB7482:
	.loc 3 63 0 discriminator 2
	movzbl	-1(%r13), %eax
	cvtsi2ss	%eax, %xmm1
	addss	%xmm1, %xmm0
.LBE7482:
.LBE7496:
.LBE7508:
.LBE7517:
.LBE7526:
.LBE7560:
.LBB7561:
.LBB7442:
	.loc 4 946 0 discriminator 2
	movaps	%xmm4, %xmm1
	unpcklps	%xmm7, %xmm1
.LBE7442:
.LBE7561:
.LBB7562:
.LBB7527:
.LBB7518:
.LBB7509:
.LBB7497:
.LBB7483:
	.loc 3 63 0 discriminator 2
	cvtss2sd	%xmm0, %xmm0
.LBE7483:
.LBE7497:
.LBB7498:
.LBB7492:
	.loc 3 827 0 discriminator 2
	cvtsd2si	%xmm0, %ecx
.LBE7492:
.LBE7498:
.LBE7509:
.LBE7518:
.LBE7527:
.LBE7562:
.LBB7563:
.LBB7443:
	.loc 4 946 0 discriminator 2
	movaps	%xmm5, %xmm0
	unpcklps	%xmm6, %xmm0
	movlhps	%xmm1, %xmm0
.LBE7443:
.LBE7563:
	.loc 1 604 0 discriminator 2
	testl	%ecx, %ecx
	setg	%al
	negl	%eax
	cmpl	$255, %ecx
	cmovbe	%ecx, %eax
	movb	%al, -1(%r13)
.LBB7564:
.LBB7454:
	.loc 4 946 0 discriminator 2
	movss	16(%rbx), %xmm6
	movss	(%rbx), %xmm1
	insertps	$0x10, 24(%rbx), %xmm6
	insertps	$0x10, 8(%rbx), %xmm1
.LBE7454:
.LBE7564:
.LBB7565:
.LBB7467:
	.loc 4 189 0 discriminator 2
	mulps	48(%r14), %xmm0
.LBE7467:
.LBE7565:
.LBB7566:
.LBB7455:
	.loc 4 946 0 discriminator 2
	movlhps	%xmm6, %xmm1
.LBE7455:
.LBE7566:
.LBB7567:
.LBB7468:
	.loc 4 189 0 discriminator 2
	mulps	16(%r14), %xmm1
	subps	%xmm1, %xmm0
.LBE7468:
.LBE7567:
.LBB7568:
.LBB7528:
.LBB7519:
.LBB7510:
.LBB7499:
.LBB7484:
	.loc 3 63 0 discriminator 2
	pxor	%xmm1, %xmm1
.LBE7484:
.LBE7499:
.LBE7510:
.LBE7519:
.LBE7528:
.LBE7568:
.LBB7569:
.LBB7535:
	.loc 7 58 0 discriminator 2
	haddps	%xmm0, %xmm0
.LBE7535:
.LBE7569:
.LBB7570:
.LBB7540:
	haddps	%xmm0, %xmm0
.LBE7540:
.LBE7570:
.LBB7571:
.LBB7545:
	.loc 4 960 0 discriminator 2
	movss	%xmm0, -8(%rbx)
.LBE7545:
.LBE7571:
.LBB7572:
.LBB7529:
.LBB7520:
.LBB7511:
.LBB7500:
.LBB7485:
	.loc 3 63 0 discriminator 2
	movzbl	-2(%r13), %eax
	cvtsi2ss	%eax, %xmm1
	addss	%xmm1, %xmm0
	cvtss2sd	%xmm0, %xmm0
.LBE7485:
.LBE7500:
.LBB7501:
.LBB7493:
	.loc 3 827 0 discriminator 2
	cvtsd2si	%xmm0, %ecx
.LBE7493:
.LBE7501:
.LBE7511:
.LBE7520:
.LBE7529:
.LBE7572:
	.loc 1 604 0 discriminator 2
	testl	%ecx, %ecx
	setg	%al
	negl	%eax
	cmpl	$255, %ecx
	cmovbe	%ecx, %eax
.LBE7434:
	.loc 1 585 0 discriminator 2
	subq	$12, %rdx
	subq	$12, %rbx
.LBB7587:
	.loc 1 604 0 discriminator 2
	movb	%al, -2(%r13)
	movl	%esi, %eax
.LBE7587:
	.loc 1 585 0 discriminator 2
	subq	$3, %r13
	subl	$4, %eax
	subl	$3, %esi
.LVL878:
	cmpl	$1, %eax
	jg	.L350
.LVL879:
	.p2align 4,,10
	.p2align 3
.L352:
.LBB7588:
.LBB7573:
.LBB7444:
	.loc 4 946 0
	movss	24(%rdx), %xmm1
	movss	8(%rdx), %xmm0
	insertps	$0x10, 32(%rdx), %xmm1
.LBE7444:
.LBE7573:
.LBB7574:
.LBB7456:
	movss	24(%rbx), %xmm2
.LBE7456:
.LBE7574:
.LBB7575:
.LBB7445:
	insertps	$0x10, 16(%rdx), %xmm0
.LBE7445:
.LBE7575:
.LBB7576:
.LBB7457:
	insertps	$0x10, 32(%rbx), %xmm2
.LBE7457:
.LBE7576:
.LBB7577:
.LBB7446:
	movlhps	%xmm1, %xmm0
.LBE7446:
.LBE7577:
.LBB7578:
.LBB7458:
	movss	8(%rbx), %xmm1
	insertps	$0x10, 16(%rbx), %xmm1
.LBE7458:
.LBE7578:
.LBB7579:
.LBB7469:
	.loc 4 189 0
	mulps	48(%r14), %xmm0
.LBE7469:
.LBE7579:
.LBB7580:
.LBB7459:
	.loc 4 946 0
	movlhps	%xmm2, %xmm1
.LBE7459:
.LBE7580:
.LBB7581:
.LBB7470:
	.loc 4 189 0
	mulps	16(%r14), %xmm1
	subps	%xmm1, %xmm0
.LBE7470:
.LBE7581:
.LBB7582:
.LBB7530:
.LBB7521:
.LBB7512:
.LBB7502:
.LBB7486:
	.loc 3 63 0
	pxor	%xmm1, %xmm1
.LBE7486:
.LBE7502:
.LBE7512:
.LBE7521:
.LBE7530:
.LBE7582:
.LBB7583:
.LBB7536:
	.loc 7 58 0
	haddps	%xmm0, %xmm0
.LBE7536:
.LBE7583:
.LBB7584:
.LBB7541:
	haddps	%xmm0, %xmm0
.LBE7541:
.LBE7584:
.LBB7585:
.LBB7546:
	.loc 4 960 0
	movss	%xmm0, (%rbx)
.LBE7546:
.LBE7585:
.LBB7586:
.LBB7531:
.LBB7522:
.LBB7513:
.LBB7503:
.LBB7487:
	.loc 3 63 0
	movzbl	0(%r13), %eax
	cvtsi2ss	%eax, %xmm1
	addss	%xmm1, %xmm0
	cvtss2sd	%xmm0, %xmm0
.LBE7487:
.LBE7503:
.LBB7504:
.LBB7494:
	.loc 3 827 0
	cvtsd2si	%xmm0, %ecx
.LBE7494:
.LBE7504:
.LBE7513:
.LBE7522:
.LBE7531:
.LBE7586:
	.loc 1 604 0
	testl	%ecx, %ecx
	setg	%al
	negl	%eax
	cmpl	$255, %ecx
	cmovbe	%ecx, %eax
.LBE7588:
	.loc 1 585 0
	subl	$1, %esi
.LVL880:
	subq	$4, %rdx
.LVL881:
.LBB7589:
	.loc 1 604 0
	movb	%al, 0(%r13)
.LBE7589:
	.loc 1 585 0
	subq	$4, %rbx
.LVL882:
	subq	$1, %r13
.LVL883:
	cmpl	$-1, %esi
	jne	.L352
.L351:
	addl	$1, -88(%rbp)
.LVL884:
	addq	$1, %r8
.LBE7591:
	movq	-96(%rbp), %rsp
	movl	-88(%rbp), %eax
.LVL885:
	cmpl	%eax, -152(%rbp)
	jg	.L347
	movl	-168(%rbp), %edi
	movl	-172(%rbp), %ebx
.LVL886:
	movl	%edi, %eax
.LVL887:
	addl	-192(%rbp), %eax
	movl	%edi, -88(%rbp)
.LVL888:
	cmpl	%ebx, %eax
	cmovg	%ebx, %eax
	movl	%eax, -152(%rbp)
	movl	%edi, %eax
	movl	-184(%rbp), %edi
	addl	%edi, %eax
	movl	%eax, -168(%rbp)
	subl	%edi, %eax
	cmpl	%eax, %ebx
	jg	.L348
.LVL889:
.L344:
	call	GOMP_barrier
.LVL890:
.LBE7334:
.LBE7333:
.LBE7332:
	.loc 1 392 0
	movq	-56(%rbp), %rax
	xorq	%fs:40, %rax
	jne	.L407
	leaq	-40(%rbp), %rsp
	popq	%rbx
	popq	%r12
	popq	%r13
	popq	%r14
	popq	%r15
	popq	%rbp
	.cfi_remember_state
	.cfi_def_cfa 7, 8
	ret
.LVL891:
	.p2align 4,,10
	.p2align 3
.L397:
	.cfi_restore_state
.LBB7595:
.LBB7331:
.LBB7330:
.LBB7141:
.LBB7140:
	.loc 1 405 0
	movl	-172(%rbp), %ecx
.LBE7140:
	.loc 1 404 0
	xorl	%r9d, %r9d
	jmp	.L319
.LVL892:
.L406:
.LBE7141:
.LBE7330:
.LBE7331:
.LBE7595:
.LBB7596:
.LBB7594:
.LBB7593:
.LBB7592:
	.loc 1 556 0
	movq	%rcx, %rax
	jmp	.L354
.LVL893:
.L407:
.LBE7592:
.LBE7593:
.LBE7594:
.LBE7596:
	.loc 1 392 0
	call	__stack_chk_fail
.LVL894:
	.cfi_endproc
.LFE12403:
	.size	_ZN15fastGaussianIIR6apply_IN2cv3VecIhLi2EEENS2_IfLi2EEELi2EEEvRKNS1_3MatERS5_._omp_fn.4, .-_ZN15fastGaussianIIR6apply_IN2cv3VecIhLi2EEENS2_IfLi2EEELi2EEEvRKNS1_3MatERS5_._omp_fn.4
	.section	.text.unlikely._ZN15fastGaussianIIR6apply_IN2cv3VecIhLi2EEENS2_IfLi2EEELi2EEEvRKNS1_3MatERS5_._omp_fn.4,"axG",@progbits,_ZN15fastGaussianIIR6apply_IN2cv3VecIhLi2EEENS2_IfLi2EEELi2EEEvRKNS1_3MatERS5_,comdat
.LCOLDE4:
	.section	.text._ZN15fastGaussianIIR6apply_IN2cv3VecIhLi2EEENS2_IfLi2EEELi2EEEvRKNS1_3MatERS5_._omp_fn.4,"axG",@progbits,_ZN15fastGaussianIIR6apply_IN2cv3VecIhLi2EEENS2_IfLi2EEELi2EEEvRKNS1_3MatERS5_,comdat
.LHOTE4:
	.section	.text.unlikely._ZN15fastGaussianIIR6apply_IN2cv3VecIhLi3EEENS2_IfLi3EEELi3EEEvRKNS1_3MatERS5_._omp_fn.5,"axG",@progbits,_ZN15fastGaussianIIR6apply_IN2cv3VecIhLi3EEENS2_IfLi3EEELi3EEEvRKNS1_3MatERS5_,comdat
.LCOLDB5:
	.section	.text._ZN15fastGaussianIIR6apply_IN2cv3VecIhLi3EEENS2_IfLi3EEELi3EEEvRKNS1_3MatERS5_._omp_fn.5,"axG",@progbits,_ZN15fastGaussianIIR6apply_IN2cv3VecIhLi3EEENS2_IfLi3EEELi3EEEvRKNS1_3MatERS5_,comdat
.LHOTB5:
	.p2align 4,,15
	.type	_ZN15fastGaussianIIR6apply_IN2cv3VecIhLi3EEENS2_IfLi3EEELi3EEEvRKNS1_3MatERS5_._omp_fn.5, @function
_ZN15fastGaussianIIR6apply_IN2cv3VecIhLi3EEENS2_IfLi3EEELi3EEEvRKNS1_3MatERS5_._omp_fn.5:
.LFB12404:
	.loc 1 392 0
	.cfi_startproc
	.cfi_personality 0x3,__gxx_personality_v0
.LVL895:
	pushq	%rbp
	.cfi_def_cfa_offset 16
	.cfi_offset 6, -16
	movl	$1, %ecx
	movq	%rsp, %rbp
	.cfi_def_cfa_register 6
	pushq	%r15
	pushq	%r14
	pushq	%r13
	pushq	%r12
	leaq	-64(%rbp), %r9
	pushq	%rbx
	leaq	-72(%rbp), %r8
	subq	$216, %rsp
	.cfi_offset 15, -24
	.cfi_offset 14, -32
	.cfi_offset 13, -40
	.cfi_offset 12, -48
	.cfi_offset 3, -56
	movslq	76(%rdi), %rsi
	.loc 1 392 0
	movq	16(%rdi), %r14
	movq	%fs:40, %rax
	movq	%rax, -56(%rbp)
	xorl	%eax, %eax
	movq	24(%rdi), %rax
	movq	%rdi, -88(%rbp)
	movq	%rax, -232(%rbp)
.LVL896:
	movslq	80(%rdi), %rax
.LVL897:
	xorl	%edi, %edi
.LVL898:
	movq	%rax, %rdx
	movl	%eax, -96(%rbp)
.LVL899:
	movq	%rax, %rbx
	movq	%rax, -248(%rbp)
	call	GOMP_loop_dynamic_start
.LVL900:
	testb	%al, %al
	movq	-88(%rbp), %r10
	je	.L409
	movq	%rbx, %rax
	movq	%r14, %r13
	salq	$2, %rax
	movq	%rax, -240(%rbp)
	leaq	96(%r14), %rax
	movq	%r10, %r14
.LVL901:
	movq	%rax, -224(%rbp)
.LVL902:
.L413:
	movq	-72(%rbp), %rax
	movl	-64(%rbp), %edi
	movq	%r14, %r15
	movq	%r13, %r14
	movl	%eax, -172(%rbp)
.LVL903:
	movl	%eax, -176(%rbp)
	cltq
.LVL904:
	movq	%rax, -192(%rbp)
	salq	$2, %rax
	movl	%edi, -216(%rbp)
	movq	%rax, -184(%rbp)
.L412:
.LVL905:
.LBB7597:
.LBB7598:
.LBB7599:
	.loc 1 399 0
	movl	72(%r15), %r9d
	movq	-232(%rbp), %rax
	xorl	%esi, %esi
	addq	-184(%rbp), %rax
	movq	$0, -104(%rbp)
	testl	%r9d, %r9d
	movq	%rax, -120(%rbp)
	jle	.L436
.LVL906:
	.p2align 4,,10
	.p2align 3
.L493:
.LBB7600:
	.loc 1 400 0
	movq	32(%r15), %rax
	movq	-104(%rbp), %rbx
	movq	16(%rax), %rdi
.LVL907:
.LBB7601:
.LBB7602:
	.loc 2 436 0
	movq	72(%rax), %rax
.LVL908:
.LBE7602:
.LBE7601:
	.loc 1 400 0
	movq	%rbx, %r8
	imulq	(%rax), %r8
	movq	-192(%rbp), %rax
	addq	%rax, %r8
	addq	%rdi, %r8
.LVL909:
	.loc 1 401 0
	addq	%rax, %rdi
.LVL910:
	.loc 1 402 0
	movq	48(%r15), %rax
.LVL911:
.LBB7603:
.LBB7604:
	.loc 2 430 0
	movq	72(%rax), %rdx
.LBE7604:
.LBE7603:
	.loc 1 402 0
	imulq	(%rdx), %rbx
	movq	%rbx, %rdx
	addq	-184(%rbp), %rdx
	addq	16(%rax), %rdx
.LVL912:
.LBB7605:
	.loc 1 405 0
	movl	-96(%rbp), %eax
.LVL913:
	testl	%eax, %eax
	jle	.L433
	movl	76(%r15), %eax
	leal	-15(%rax), %ecx
	cmpl	%ecx, -172(%rbp)
	jge	.L512
	leaq	80(%r14), %r13
	leaq	64(%r14), %r12
	movq	%r14, -112(%rbp)
	movq	-120(%rbp), %rbx
	movl	-176(%rbp), %r14d
	xorl	%r9d, %r9d
.LVL914:
	.p2align 4,,10
	.p2align 3
.L451:
	pxor	%xmm1, %xmm1
	movl	$1, %ecx
	movdqa	(%r15), %xmm5
	xorl	%eax, %eax
	movl	%r9d, -88(%rbp)
	movaps	%xmm1, %xmm7
	movaps	%xmm1, %xmm6
	movaps	%xmm1, %xmm8
.LVL915:
.L456:
.LBB7606:
.LBB7607:
.LBB7608:
	.loc 1 409 0
	cmpl	%eax, %esi
	movl	%eax, %r11d
.LVL916:
	jge	.L453
	movq	%rdi, %r10
.L458:
.LVL917:
.LBB7609:
.LBB7610:
	.loc 3 698 0 discriminator 4
	movdqu	(%r10), %xmm2
.LBE7610:
.LBE7609:
.LBB7611:
.LBB7612:
.LBB7613:
.LBB7614:
	.loc 4 884 0 discriminator 4
	movss	0(%r13,%rax,4), %xmm0
.LVL918:
.LBE7614:
.LBE7613:
.LBE7612:
.LBE7611:
	.loc 1 424 0 discriminator 4
	cmpl	%r11d, %esi
.LBB7615:
.LBB7616:
	.loc 3 965 0 discriminator 4
	movdqa	%xmm2, %xmm3
.LBE7616:
.LBE7615:
.LBB7618:
.LBB7619:
	.loc 4 743 0 discriminator 4
	shufps	$0, %xmm0, %xmm0
.LVL919:
.LBE7619:
.LBE7618:
.LBB7620:
.LBB7617:
	.loc 3 965 0 discriminator 4
	punpckhbw	%xmm5, %xmm3
.LVL920:
.LBE7617:
.LBE7620:
.LBB7621:
.LBB7622:
	.loc 3 989 0 discriminator 4
	punpcklbw	%xmm5, %xmm2
.LVL921:
.LBE7622:
.LBE7621:
.LBB7623:
.LBB7624:
	.loc 3 995 0 discriminator 4
	movdqa	%xmm3, %xmm9
.LBE7624:
.LBE7623:
.LBB7626:
.LBB7627:
	.loc 3 971 0 discriminator 4
	punpckhwd	%xmm5, %xmm3
.LVL922:
.LBE7627:
.LBE7626:
.LBB7628:
.LBB7629:
	movdqa	%xmm2, %xmm4
.LBE7629:
.LBE7628:
.LBB7631:
.LBB7625:
	.loc 3 995 0 discriminator 4
	punpcklwd	%xmm5, %xmm9
.LBE7625:
.LBE7631:
.LBB7632:
.LBB7630:
	.loc 3 971 0 discriminator 4
	punpckhwd	%xmm5, %xmm4
.LVL923:
.LBE7630:
.LBE7632:
.LBB7633:
.LBB7634:
	.loc 3 767 0 discriminator 4
	cvtdq2ps	%xmm3, %xmm3
.LBE7634:
.LBE7633:
.LBB7635:
.LBB7636:
	.loc 4 183 0 discriminator 4
	mulps	%xmm0, %xmm3
.LBE7636:
.LBE7635:
.LBB7638:
.LBB7639:
	.loc 3 995 0 discriminator 4
	punpcklwd	%xmm5, %xmm2
.LVL924:
.LBE7639:
.LBE7638:
.LBB7640:
.LBB7641:
	.loc 3 767 0 discriminator 4
	cvtdq2ps	%xmm4, %xmm4
.LVL925:
.LBE7641:
.LBE7640:
.LBB7642:
.LBB7643:
	.loc 4 183 0 discriminator 4
	mulps	%xmm0, %xmm4
.LBE7643:
.LBE7642:
.LBB7645:
.LBB7637:
	addps	%xmm3, %xmm8
.LVL926:
.LBE7637:
.LBE7645:
.LBB7646:
.LBB7647:
	.loc 3 767 0 discriminator 4
	cvtdq2ps	%xmm2, %xmm2
.LVL927:
.LBE7647:
.LBE7646:
.LBB7648:
.LBB7649:
	cvtdq2ps	%xmm9, %xmm3
.LVL928:
.LBE7649:
.LBE7648:
.LBB7650:
.LBB7651:
	.loc 4 183 0 discriminator 4
	mulps	%xmm0, %xmm3
.LBE7651:
.LBE7650:
.LBB7653:
.LBB7654:
	mulps	%xmm2, %xmm0
.LVL929:
.LBE7654:
.LBE7653:
.LBB7656:
.LBB7644:
	addps	%xmm4, %xmm7
.LVL930:
.LBE7644:
.LBE7656:
.LBB7657:
.LBB7652:
	addps	%xmm3, %xmm6
.LVL931:
.LBE7652:
.LBE7657:
.LBB7658:
.LBB7655:
	addps	%xmm0, %xmm1
.LVL932:
.LBE7655:
.LBE7658:
	.loc 1 424 0 discriminator 4
	jg	.L454
	movq	%rbx, %r10
.LVL933:
.L457:
.LBB7659:
.LBB7660:
.LBB7661:
.LBB7662:
	.loc 4 884 0 discriminator 4
	movss	(%r12,%rax,4), %xmm0
.LVL934:
.LBE7662:
.LBE7661:
.LBE7660:
.LBE7659:
.LBB7663:
.LBB7664:
	.loc 4 931 0 discriminator 4
	movups	48(%r10), %xmm9
.LVL935:
	addq	$1, %rax
.LVL936:
	addl	$1, %ecx
.LBE7664:
.LBE7663:
.LBB7665:
.LBB7666:
	.loc 4 743 0 discriminator 4
	shufps	$0, %xmm0, %xmm0
.LVL937:
.LBE7666:
.LBE7665:
.LBB7667:
.LBB7668:
	.loc 4 931 0 discriminator 4
	movups	32(%r10), %xmm4
.LVL938:
.LBE7668:
.LBE7667:
.LBE7608:
	.loc 1 408 0 discriminator 4
	cmpq	$4, %rax
.LBB7689:
.LBB7669:
.LBB7670:
	.loc 4 931 0 discriminator 4
	movups	16(%r10), %xmm3
.LVL939:
.LBE7670:
.LBE7669:
.LBB7671:
.LBB7672:
	.loc 4 189 0 discriminator 4
	mulps	%xmm0, %xmm9
.LVL940:
.LBE7672:
.LBE7671:
.LBB7674:
.LBB7675:
	.loc 4 931 0 discriminator 4
	movups	(%r10), %xmm2
.LVL941:
.LBE7675:
.LBE7674:
.LBB7676:
.LBB7677:
	.loc 4 189 0 discriminator 4
	mulps	%xmm0, %xmm4
.LVL942:
.LBE7677:
.LBE7676:
.LBB7679:
.LBB7680:
	mulps	%xmm0, %xmm3
.LVL943:
.LBE7680:
.LBE7679:
.LBB7682:
.LBB7673:
	subps	%xmm9, %xmm8
.LVL944:
.LBE7673:
.LBE7682:
.LBB7683:
.LBB7684:
	mulps	%xmm2, %xmm0
.LVL945:
.LBE7684:
.LBE7683:
.LBB7686:
.LBB7678:
	subps	%xmm4, %xmm6
.LVL946:
.LBE7678:
.LBE7686:
.LBB7687:
.LBB7681:
	subps	%xmm3, %xmm7
.LVL947:
.LBE7681:
.LBE7687:
.LBB7688:
.LBB7685:
	subps	%xmm0, %xmm1
.LVL948:
.LBE7685:
.LBE7688:
.LBE7689:
	.loc 1 408 0 discriminator 4
	jne	.L456
	movl	-88(%rbp), %r9d
.LVL949:
.LBE7607:
.LBE7606:
	.loc 1 405 0
	addq	$16, %r8
.LVL950:
	addq	$16, %rdi
.LVL951:
.LBB7700:
.LBB7691:
.LBB7692:
	.loc 4 980 0
	movups	%xmm1, (%rdx)
.LVL952:
.LBE7692:
.LBE7691:
.LBE7700:
	.loc 1 405 0
	addq	$64, %rbx
.LVL953:
	addq	$64, %rdx
.LVL954:
.LBB7701:
.LBB7693:
.LBB7694:
	.loc 4 980 0
	movups	%xmm7, -48(%rdx)
.LVL955:
.LBE7694:
.LBE7693:
.LBE7701:
	.loc 1 405 0
	addl	$16, %r9d
.LBB7702:
.LBB7695:
.LBB7696:
	.loc 4 980 0
	movups	%xmm6, -32(%rdx)
.LVL956:
.LBE7696:
.LBE7695:
.LBB7697:
.LBB7698:
	movups	%xmm8, -16(%rdx)
.LVL957:
.LBE7698:
.LBE7697:
.LBE7702:
	.loc 1 405 0
	cmpl	%r9d, -96(%rbp)
	jle	.L513
	.loc 1 405 0 is_stmt 0 discriminator 1
	movl	76(%r15), %eax
	leal	(%r9,%r14), %ecx
	leal	-15(%rax), %r10d
.LVL958:
	cmpl	%ecx, %r10d
	jg	.L451
	movq	-112(%rbp), %r14
.LVL959:
.L434:
.LBE7605:
.LBB7704:
	.loc 1 442 0 is_stmt 1
	cmpl	%ecx, %eax
	jle	.L507
.LBB7705:
	.loc 1 450 0 discriminator 1
	movslq	%eax, %rbx
	.loc 1 445 0 discriminator 1
	leal	(%rax,%rax), %ecx
	movq	%r15, -112(%rbp)
	.loc 1 450 0 discriminator 1
	leaq	0(,%rbx,4), %r10
	.loc 1 445 0 discriminator 1
	movq	%rbx, -88(%rbp)
	movl	-176(%rbp), %r15d
	movslq	%ecx, %r12
	addl	%eax, %ecx
	movl	-96(%rbp), %ebx
	.loc 1 450 0 discriminator 1
	negq	%r10
	.loc 1 445 0 discriminator 1
	movslq	%ecx, %r13
	jmp	.L482
.LVL960:
	.p2align 4,,10
	.p2align 3
.L514:
	.loc 1 445 0 is_stmt 0
	movzbl	(%r8), %ecx
	pxor	%xmm0, %xmm0
	cvtsi2ss	%ecx, %xmm0
	mulss	80(%r14), %xmm0
	addss	(%rdx), %xmm0
	movss	%xmm0, (%rdx)
	.loc 1 449 0 is_stmt 1
	je	.L441
	.loc 1 450 0
	leaq	(%rdx,%r10), %rcx
	movss	64(%r14), %xmm1
	.loc 1 445 0
	movq	%r8, %r11
	subq	-88(%rbp), %r11
	.loc 1 449 0
	cmpl	$1, %esi
	.loc 1 450 0
	mulss	(%rcx), %xmm1
	subss	%xmm1, %xmm0
	.loc 1 445 0
	pxor	%xmm1, %xmm1
	.loc 1 450 0
	movss	%xmm0, (%rdx)
.LVL961:
	.loc 1 445 0
	movzbl	(%r11), %r11d
	cvtsi2ss	%r11d, %xmm1
	mulss	84(%r14), %xmm1
	addss	%xmm1, %xmm0
	movss	%xmm0, (%rdx)
	.loc 1 449 0
	je	.L443
	.loc 1 450 0
	movss	68(%r14), %xmm1
	addq	%r10, %rcx
	.loc 1 445 0
	movq	%r8, %r11
	.loc 1 450 0
	mulss	(%rcx), %xmm1
	.loc 1 445 0
	subq	%r12, %r11
	.loc 1 449 0
	cmpl	$2, %esi
	.loc 1 450 0
	subss	%xmm1, %xmm0
	.loc 1 445 0
	pxor	%xmm1, %xmm1
	.loc 1 450 0
	movss	%xmm0, (%rdx)
.LVL962:
	.loc 1 445 0
	movzbl	(%r11), %r11d
	cvtsi2ss	%r11d, %xmm1
	mulss	88(%r14), %xmm1
	addss	%xmm1, %xmm0
	movss	%xmm0, (%rdx)
	.loc 1 449 0
	je	.L445
	.loc 1 450 0
	movss	72(%r14), %xmm1
	.loc 1 445 0
	movq	%r8, %r11
	.loc 1 450 0
	mulss	(%rcx,%r10), %xmm1
	.loc 1 445 0
	subq	%r13, %r11
	.loc 1 449 0
	cmpl	$3, %esi
	.loc 1 450 0
	subss	%xmm1, %xmm0
	.loc 1 445 0
	pxor	%xmm1, %xmm1
	.loc 1 450 0
	movss	%xmm0, (%rdx)
.LVL963:
	.loc 1 445 0
	movzbl	(%r11), %r11d
	cvtsi2ss	%r11d, %xmm1
	mulss	92(%r14), %xmm1
	addss	%xmm1, %xmm0
	movss	%xmm0, (%rdx)
	.loc 1 449 0
	je	.L447
	.loc 1 450 0
	movss	(%rcx,%r10,2), %xmm1
	mulss	76(%r14), %xmm1
	subss	%xmm1, %xmm0
.L448:
.LBE7705:
	.loc 1 442 0
	addl	$1, %r9d
.LVL964:
	movss	%xmm0, (%rdx)
.LVL965:
	addq	$1, %r8
.LVL966:
	addq	$1, %rdi
.LVL967:
	addq	$4, %rdx
.LVL968:
	cmpl	%r9d, %ebx
	jle	.L508
	.loc 1 442 0 is_stmt 0 discriminator 1
	leal	(%r9,%r15), %ecx
	cmpl	%ecx, %eax
	jle	.L508
.LVL969:
.L482:
.LBB7706:
	.loc 1 444 0 is_stmt 1 discriminator 1
	testl	%esi, %esi
	jns	.L514
	.loc 1 447 0
	movzbl	(%rdi), %ecx
	pxor	%xmm0, %xmm0
	cvtsi2ss	%ecx, %xmm0
	mulss	80(%r14), %xmm0
	addss	(%rdx), %xmm0
	movss	%xmm0, (%rdx)
.L441:
	.loc 1 452 0
	movzbl	(%rdi), %ecx
	pxor	%xmm1, %xmm1
	cvtsi2ss	%ecx, %xmm1
	mulss	64(%r14), %xmm1
	subss	%xmm1, %xmm0
	.loc 1 447 0
	pxor	%xmm1, %xmm1
	.loc 1 452 0
	movss	%xmm0, (%rdx)
.LVL970:
	.loc 1 447 0
	movzbl	(%rdi), %ecx
	cvtsi2ss	%ecx, %xmm1
	mulss	84(%r14), %xmm1
	addss	%xmm1, %xmm0
	movss	%xmm0, (%rdx)
.L443:
	.loc 1 452 0
	movzbl	(%rdi), %ecx
	pxor	%xmm1, %xmm1
	cvtsi2ss	%ecx, %xmm1
	mulss	68(%r14), %xmm1
	subss	%xmm1, %xmm0
	.loc 1 447 0
	pxor	%xmm1, %xmm1
	.loc 1 452 0
	movss	%xmm0, (%rdx)
.LVL971:
	.loc 1 447 0
	movzbl	(%rdi), %ecx
	cvtsi2ss	%ecx, %xmm1
	mulss	88(%r14), %xmm1
	addss	%xmm1, %xmm0
	movss	%xmm0, (%rdx)
.L445:
	.loc 1 452 0
	movzbl	(%rdi), %ecx
	pxor	%xmm1, %xmm1
	cvtsi2ss	%ecx, %xmm1
	mulss	72(%r14), %xmm1
	subss	%xmm1, %xmm0
	.loc 1 447 0
	pxor	%xmm1, %xmm1
	.loc 1 452 0
	movss	%xmm0, (%rdx)
.LVL972:
	.loc 1 447 0
	movzbl	(%rdi), %ecx
	cvtsi2ss	%ecx, %xmm1
	mulss	92(%r14), %xmm1
	addss	%xmm1, %xmm0
	movss	%xmm0, (%rdx)
.L447:
	.loc 1 452 0
	movzbl	(%rdi), %ecx
	pxor	%xmm1, %xmm1
	cvtsi2ss	%ecx, %xmm1
	mulss	76(%r14), %xmm1
	subss	%xmm1, %xmm0
	jmp	.L448
.LVL973:
	.p2align 4,,10
	.p2align 3
.L454:
.LBE7706:
.LBE7704:
.LBB7707:
.LBB7703:
.LBB7699:
.LBB7690:
	.loc 1 424 0 discriminator 1
	movl	76(%r15), %r10d
.LVL974:
	movq	%rdx, %r11
	imull	%ecx, %r10d
	movslq	%r10d, %r10
	salq	$2, %r10
	subq	%r10, %r11
	movq	%r11, %r10
	jmp	.L457
.LVL975:
	.p2align 4,,10
	.p2align 3
.L453:
	.loc 1 409 0 discriminator 1
	movl	76(%r15), %r10d
	movq	%r8, %r9
	imull	%eax, %r10d
	movslq	%r10d, %r10
	subq	%r10, %r9
	movq	%r9, %r10
	jmp	.L458
.LVL976:
	.p2align 4,,10
	.p2align 3
.L513:
	movq	-112(%rbp), %r14
.LVL977:
.L507:
	movl	72(%r15), %r9d
.LVL978:
.L433:
.LBE7690:
.LBE7699:
.LBE7703:
.LBE7707:
.LBE7600:
	.loc 1 399 0 discriminator 2
	addl	$1, %esi
.LVL979:
	addq	$1, -104(%rbp)
	cmpl	%r9d, %esi
	jl	.L493
.LVL980:
.L436:
.LBE7599:
.LBB7710:
	.loc 1 457 0
	leal	-1(%r9), %edx
	movslq	%edx, %rax
	testl	%edx, %edx
	movl	%edx, %ebx
.LVL981:
	movq	%rax, -200(%rbp)
	js	.L417
	movl	-96(%rbp), %r12d
	movl	-176(%rbp), %r10d
	movq	%rax, %r8
.LVL982:
	.p2align 4,,10
	.p2align 3
.L494:
.LBB7711:
	.loc 1 458 0
	movq	32(%r15), %rax
	movq	%r8, %rsi
	.loc 1 459 0
	movslq	%edx, %rdx
	.loc 1 458 0
	movq	-192(%rbp), %rcx
	.loc 1 460 0
	movq	-184(%rbp), %r11
	movq	16(%rax), %rdi
.LVL983:
.LBB7712:
.LBB7713:
	.loc 2 436 0
	movq	72(%rax), %rax
.LVL984:
	movq	(%rax), %rax
.LVL985:
.LBE7713:
.LBE7712:
	.loc 1 459 0
	imulq	%rax, %rdx
	.loc 1 458 0
	imulq	%rax, %rsi
	addq	%rcx, %rsi
	.loc 1 459 0
	addq	%rdx, %rcx
	.loc 1 460 0
	movq	64(%r15), %rdx
	.loc 1 458 0
	addq	%rdi, %rsi
.LVL986:
	.loc 1 459 0
	addq	%rdi, %rcx
.LVL987:
	.loc 1 460 0
	movq	%r8, %rdi
.LBB7714:
.LBB7715:
	.loc 2 430 0
	movq	72(%rdx), %rax
.LBE7715:
.LBE7714:
	.loc 1 460 0
	imulq	(%rax), %rdi
	movq	%rdi, %rax
	.loc 1 461 0
	movq	48(%r15), %rdi
	.loc 1 460 0
	addq	%r11, %rax
	addq	16(%rdx), %rax
.LVL988:
.LBB7716:
.LBB7717:
	.loc 2 430 0
	movq	72(%rdi), %rdx
.LBE7717:
.LBE7716:
	.loc 1 461 0
	imulq	(%rdx), %r8
	movq	%r8, %rdx
	addq	%r11, %rdx
	addq	16(%rdi), %rdx
.LVL989:
.LBB7718:
	.loc 1 463 0
	testl	%r12d, %r12d
	jle	.L414
	movl	76(%r15), %r8d
	leal	-15(%r8), %edi
.LVL990:
	cmpl	%edi, -172(%rbp)
	jge	.L473
	movq	-224(%rbp), %r13
	xorl	%edi, %edi
.LVL991:
	.p2align 4,,10
	.p2align 3
.L416:
	xorl	%r8d, %r8d
	pxor	%xmm0, %xmm0
.LBB7719:
.LBB7720:
.LBB7721:
	.loc 1 467 0
	addl	$1, %r8d
	movq	%r13, %r11
	subl	%r8d, %r9d
	movdqa	(%r15), %xmm4
.LVL992:
	cmpl	%ebx, %r9d
.LBE7721:
.LBE7720:
.LBE7719:
	.loc 1 463 0
	movaps	%xmm0, %xmm7
.LVL993:
	movaps	%xmm0, %xmm6
.LVL994:
	movaps	%xmm0, %xmm3
.LVL995:
.LBB7887:
.LBB7854:
.LBB7850:
	.loc 1 467 0
	jg	.L431
.LVL996:
.L515:
.LBB7722:
	.loc 1 496 0
	movss	(%r11), %xmm1
	addq	$4, %r11
.LBB7723:
.LBB7724:
	.loc 3 698 0
	movdqu	(%rcx), %xmm2
.LBE7724:
.LBE7723:
	.loc 1 496 0
	subss	-36(%r11), %xmm1
.LVL997:
.LBE7722:
.LBE7850:
	.loc 1 466 0
	cmpl	$4, %r8d
.LBB7851:
.LBB7765:
.LBB7725:
.LBB7726:
	.loc 3 965 0
	movdqa	%xmm2, %xmm5
.LBE7726:
.LBE7725:
.LBB7728:
.LBB7729:
	.loc 3 989 0
	punpcklbw	%xmm4, %xmm2
.LBE7729:
.LBE7728:
.LBB7730:
.LBB7727:
	.loc 3 965 0
	punpckhbw	%xmm4, %xmm5
.LBE7727:
.LBE7730:
.LBB7731:
.LBB7732:
	.loc 3 971 0
	movdqa	%xmm2, %xmm8
.LBE7732:
.LBE7731:
.LBB7734:
.LBB7735:
	.loc 3 995 0
	punpcklwd	%xmm4, %xmm2
.LBE7735:
.LBE7734:
.LBB7736:
.LBB7737:
	.loc 4 891 0
	shufps	$0, %xmm1, %xmm1
.LVL998:
.LBE7737:
.LBE7736:
.LBB7738:
.LBB7739:
	.loc 3 995 0
	movdqa	%xmm5, %xmm9
.LBE7739:
.LBE7738:
.LBB7741:
.LBB7742:
	.loc 3 971 0
	punpckhwd	%xmm4, %xmm5
.LVL999:
.LBE7742:
.LBE7741:
.LBB7743:
.LBB7744:
	.loc 3 767 0
	cvtdq2ps	%xmm2, %xmm2
.LBE7744:
.LBE7743:
.LBB7745:
.LBB7733:
	.loc 3 971 0
	punpckhwd	%xmm4, %xmm8
.LVL1000:
.LBE7733:
.LBE7745:
.LBB7746:
.LBB7740:
	.loc 3 995 0
	punpcklwd	%xmm4, %xmm9
.LVL1001:
.LBE7740:
.LBE7746:
.LBB7747:
.LBB7748:
	.loc 3 767 0
	cvtdq2ps	%xmm5, %xmm5
.LVL1002:
.LBE7748:
.LBE7747:
.LBB7749:
.LBB7750:
	.loc 4 183 0
	mulps	%xmm1, %xmm5
	addps	%xmm5, %xmm3
.LVL1003:
.LBE7750:
.LBE7749:
.LBB7751:
.LBB7752:
	.loc 3 767 0
	cvtdq2ps	%xmm9, %xmm5
.LVL1004:
.LBE7752:
.LBE7751:
.LBB7753:
.LBB7754:
	.loc 4 183 0
	mulps	%xmm1, %xmm5
	addps	%xmm5, %xmm6
.LVL1005:
.LBE7754:
.LBE7753:
.LBB7755:
.LBB7756:
	.loc 3 767 0
	cvtdq2ps	%xmm8, %xmm5
.LVL1006:
.LBE7756:
.LBE7755:
.LBB7757:
.LBB7758:
	.loc 4 183 0
	mulps	%xmm1, %xmm5
.LBE7758:
.LBE7757:
.LBB7760:
.LBB7761:
	mulps	%xmm2, %xmm1
.LBE7761:
.LBE7760:
.LBB7763:
.LBB7759:
	addps	%xmm5, %xmm7
.LVL1007:
.LBE7759:
.LBE7763:
.LBB7764:
.LBB7762:
	addps	%xmm1, %xmm0
.LVL1008:
.LBE7762:
.LBE7764:
.LBE7765:
.LBE7851:
	.loc 1 466 0
	je	.L428
.LVL1009:
.L516:
	movl	72(%r15), %r9d
.LBB7852:
	.loc 1 467 0
	addl	$1, %r8d
.LVL1010:
	subl	%r8d, %r9d
	cmpl	%ebx, %r9d
	jle	.L515
.LVL1011:
.L431:
.LBB7766:
.LBB7767:
.LBB7768:
	.loc 3 698 0
	movl	76(%r15), %r9d
.LBE7768:
.LBE7767:
.LBB7770:
.LBB7771:
.LBB7772:
.LBB7773:
	.loc 4 884 0
	movss	(%r11), %xmm1
.LVL1012:
	addq	$4, %r11
.LBE7773:
.LBE7772:
.LBE7771:
.LBE7770:
.LBB7774:
.LBB7775:
	.loc 4 743 0
	shufps	$0, %xmm1, %xmm1
.LVL1013:
.LBE7775:
.LBE7774:
.LBB7776:
.LBB7769:
	.loc 3 698 0
	imull	%r8d, %r9d
	movslq	%r9d, %r9
	movdqu	(%rsi,%r9), %xmm2
.LVL1014:
.LBE7769:
.LBE7776:
.LBB7777:
.LBB7778:
	.loc 3 965 0
	movdqa	%xmm2, %xmm5
.LBE7778:
.LBE7777:
.LBB7780:
.LBB7781:
	.loc 3 989 0
	punpcklbw	%xmm4, %xmm2
.LVL1015:
.LBE7781:
.LBE7780:
.LBB7782:
.LBB7779:
	.loc 3 965 0
	punpckhbw	%xmm4, %xmm5
.LVL1016:
.LBE7779:
.LBE7782:
.LBB7783:
.LBB7784:
	.loc 3 971 0
	movdqa	%xmm2, %xmm8
.LBE7784:
.LBE7783:
.LBB7786:
.LBB7787:
	.loc 3 995 0
	movdqa	%xmm5, %xmm9
.LBE7787:
.LBE7786:
.LBB7789:
.LBB7790:
	.loc 3 971 0
	punpckhwd	%xmm4, %xmm5
.LVL1017:
.LBE7790:
.LBE7789:
.LBB7791:
.LBB7785:
	punpckhwd	%xmm4, %xmm8
.LVL1018:
.LBE7785:
.LBE7791:
.LBB7792:
.LBB7788:
	.loc 3 995 0
	punpcklwd	%xmm4, %xmm9
.LBE7788:
.LBE7792:
.LBB7793:
.LBB7794:
	.loc 3 767 0
	cvtdq2ps	%xmm5, %xmm5
.LBE7794:
.LBE7793:
.LBB7795:
.LBB7796:
	.loc 4 183 0
	mulps	%xmm1, %xmm5
.LBE7796:
.LBE7795:
.LBB7798:
.LBB7799:
	.loc 3 995 0
	punpcklwd	%xmm4, %xmm2
.LVL1019:
.LBE7799:
.LBE7798:
.LBB7800:
.LBB7797:
	.loc 4 183 0
	addps	%xmm5, %xmm3
.LVL1020:
.LBE7797:
.LBE7800:
.LBB7801:
.LBB7802:
	.loc 3 767 0
	cvtdq2ps	%xmm9, %xmm5
.LVL1021:
.LBE7802:
.LBE7801:
.LBB7803:
.LBB7804:
	cvtdq2ps	%xmm2, %xmm2
.LVL1022:
.LBE7804:
.LBE7803:
.LBB7805:
.LBB7806:
	.loc 4 183 0
	mulps	%xmm1, %xmm5
.LBE7806:
.LBE7805:
.LBB7808:
.LBB7809:
	.loc 4 931 0
	movups	48(%rax,%r9,4), %xmm9
.LVL1023:
.LBE7809:
.LBE7808:
.LBB7810:
.LBB7807:
	.loc 4 183 0
	addps	%xmm5, %xmm6
.LVL1024:
.LBE7807:
.LBE7810:
.LBB7811:
.LBB7812:
	.loc 3 767 0
	cvtdq2ps	%xmm8, %xmm5
.LVL1025:
.LBE7812:
.LBE7811:
.LBB7813:
.LBB7814:
	.loc 4 183 0
	mulps	%xmm1, %xmm5
.LBE7814:
.LBE7813:
.LBB7816:
.LBB7817:
	.loc 4 931 0
	movups	32(%rax,%r9,4), %xmm8
.LVL1026:
.LBE7817:
.LBE7816:
.LBB7818:
.LBB7819:
	.loc 4 183 0
	mulps	%xmm2, %xmm1
.LVL1027:
.LBE7819:
.LBE7818:
.LBB7821:
.LBB7822:
	.loc 4 931 0
	movups	(%rax,%r9,4), %xmm2
.LBE7822:
.LBE7821:
.LBB7823:
.LBB7815:
	.loc 4 183 0
	addps	%xmm5, %xmm7
.LVL1028:
.LBE7815:
.LBE7823:
.LBB7824:
.LBB7825:
	.loc 4 931 0
	movups	16(%rax,%r9,4), %xmm5
.LBE7825:
.LBE7824:
.LBB7826:
.LBB7820:
	.loc 4 183 0
	addps	%xmm1, %xmm0
.LVL1029:
.LBE7820:
.LBE7826:
.LBB7827:
.LBB7828:
.LBB7829:
.LBB7830:
	.loc 4 884 0
	movss	-36(%r11), %xmm1
.LVL1030:
.LBE7830:
.LBE7829:
.LBE7828:
.LBE7827:
.LBE7766:
.LBE7852:
	.loc 1 466 0
	cmpl	$4, %r8d
.LBB7853:
.LBB7849:
.LBB7831:
.LBB7832:
	.loc 4 743 0
	shufps	$0, %xmm1, %xmm1
.LVL1031:
.LBE7832:
.LBE7831:
.LBB7833:
.LBB7834:
	.loc 4 189 0
	mulps	%xmm1, %xmm9
.LVL1032:
.LBE7834:
.LBE7833:
.LBB7836:
.LBB7837:
	mulps	%xmm1, %xmm8
.LVL1033:
.LBE7837:
.LBE7836:
.LBB7839:
.LBB7840:
	mulps	%xmm1, %xmm5
.LVL1034:
.LBE7840:
.LBE7839:
.LBB7842:
.LBB7835:
	subps	%xmm9, %xmm3
.LBE7835:
.LBE7842:
.LBB7843:
.LBB7844:
	mulps	%xmm2, %xmm1
.LVL1035:
.LBE7844:
.LBE7843:
.LBB7846:
.LBB7838:
	subps	%xmm8, %xmm6
.LBE7838:
.LBE7846:
.LBB7847:
.LBB7841:
	subps	%xmm5, %xmm7
.LBE7841:
.LBE7847:
.LBB7848:
.LBB7845:
	subps	%xmm1, %xmm0
.LVL1036:
.LBE7845:
.LBE7848:
.LBE7849:
.LBE7853:
	.loc 1 466 0
	jne	.L516
.LVL1037:
.L428:
.LBE7854:
.LBB7855:
.LBB7856:
	.loc 4 980 0
	movups	%xmm0, (%rax)
.LVL1038:
.LBE7856:
.LBE7855:
.LBE7887:
	.loc 1 463 0
	addl	$16, %edi
.LVL1039:
	addq	$16, %rsi
.LVL1040:
	addq	$16, %rcx
.LVL1041:
.LBB7888:
.LBB7857:
.LBB7858:
	.loc 4 980 0
	movups	%xmm7, 16(%rax)
.LVL1042:
.LBE7858:
.LBE7857:
.LBE7888:
	.loc 1 463 0
	addq	$64, %rdx
.LVL1043:
	addq	$64, %rax
.LVL1044:
.LBB7889:
.LBB7859:
.LBB7860:
	.loc 4 980 0
	movups	%xmm6, -32(%rax)
.LVL1045:
.LBE7860:
.LBE7859:
.LBB7861:
.LBB7862:
	movups	%xmm3, -16(%rax)
.LVL1046:
.LBE7862:
.LBE7861:
.LBB7863:
.LBB7864:
	.loc 4 931 0
	movups	-16(%rdx), %xmm1
.LVL1047:
.LBE7864:
.LBE7863:
.LBB7865:
.LBB7866:
	movups	-32(%rdx), %xmm2
.LVL1048:
.LBE7866:
.LBE7865:
.LBB7867:
.LBB7868:
	.loc 4 980 0
	addps	%xmm1, %xmm3
.LBE7868:
.LBE7867:
.LBB7870:
.LBB7871:
	.loc 4 931 0
	movups	-48(%rdx), %xmm4
.LVL1049:
.LBE7871:
.LBE7870:
.LBB7872:
.LBB7873:
	.loc 4 980 0
	addps	%xmm2, %xmm6
.LBE7873:
.LBE7872:
.LBB7875:
.LBB7876:
	.loc 4 931 0
	movups	-64(%rdx), %xmm5
.LVL1050:
.LBE7876:
.LBE7875:
.LBB7877:
.LBB7878:
	.loc 4 980 0
	addps	%xmm4, %xmm7
.LBE7878:
.LBE7877:
.LBB7880:
.LBB7869:
	movups	%xmm3, -16(%rdx)
.LBE7869:
.LBE7880:
.LBB7881:
.LBB7882:
	addps	%xmm5, %xmm0
.LBE7882:
.LBE7881:
.LBB7884:
.LBB7874:
	movups	%xmm6, -32(%rdx)
.LBE7874:
.LBE7884:
.LBB7885:
.LBB7879:
	movups	%xmm7, -48(%rdx)
.LBE7879:
.LBE7885:
.LBB7886:
.LBB7883:
	movups	%xmm0, -64(%rdx)
.LVL1051:
.LBE7883:
.LBE7886:
.LBE7889:
	.loc 1 463 0
	cmpl	%edi, %r12d
	jle	.L414
	leal	(%rdi,%r10), %r9d
	.loc 1 463 0 is_stmt 0 discriminator 1
	movl	76(%r15), %r8d
.LVL1052:
	leal	-15(%r8), %r11d
	cmpl	%r9d, %r11d
	jle	.L415
	movl	72(%r15), %r9d
	jmp	.L416
.LVL1053:
	.p2align 4,,10
	.p2align 3
.L503:
	movq	-208(%rbp), %r15
.LVL1054:
.L414:
.LBE7718:
.LBE7711:
	.loc 1 457 0 is_stmt 1
	subl	$1, %ebx
.LVL1055:
	subq	$1, -200(%rbp)
	cmpl	$-1, %ebx
	je	.L417
	movl	72(%r15), %r9d
	movq	-200(%rbp), %r8
	leal	-1(%r9), %edx
.LVL1056:
	jmp	.L494
.LVL1057:
.L473:
.LBB7897:
.LBB7890:
	.loc 1 463 0
	movl	-172(%rbp), %r9d
.LBE7890:
	.loc 1 462 0
	xorl	%edi, %edi
.LVL1058:
	.p2align 4,,10
	.p2align 3
.L415:
.LBB7891:
	.loc 1 525 0
	cmpl	%r8d, %r9d
	jge	.L414
	movl	72(%r15), %r9d
	movq	%r15, -208(%rbp)
	movl	%r8d, -112(%rbp)
	leal	-1(%r9), %r11d
	leal	-2(%r9), %r13d
	movl	%r11d, -88(%rbp)
	leal	-3(%r9), %r11d
	movl	%r11d, -104(%rbp)
	leal	-4(%r9), %r11d
	movl	%r11d, -212(%rbp)
.LBB7892:
.LBB7893:
	.loc 1 528 0
	movslq	%r8d, %r11
	movl	-212(%rbp), %r15d
	leaq	0(,%r11,4), %r9
	movq	%r11, -120(%rbp)
	movq	%r9, -128(%rbp)
	leal	(%r8,%r8), %r9d
	movslq	%r9d, %r11
	addl	%r8d, %r9d
	movq	%r11, -136(%rbp)
	salq	$2, %r11
	movq	%r11, -144(%rbp)
	movslq	%r9d, %r11
	leaq	0(,%r11,4), %r9
	movq	%r11, -152(%rbp)
	leal	0(,%r8,4), %r11d
	movslq	%r11d, %r11
	movq	%r9, -160(%rbp)
	leaq	0(,%r11,4), %r9
	addq	%r11, %rsi
.LVL1059:
	movq	%r9, -168(%rbp)
	jmp	.L470
.LVL1060:
	.p2align 4,,10
	.p2align 3
.L517:
	movq	-120(%rbp), %r8
	movq	%rsi, %r9
	subq	%r11, %r9
	pxor	%xmm2, %xmm2
	movss	64(%r14), %xmm0
	.loc 1 527 0
	cmpl	%r13d, %ebx
	.loc 1 528 0
	movzbl	(%r9,%r8), %r9d
	movq	-128(%rbp), %r8
	movss	(%rax), %xmm3
	mulss	(%rax,%r8), %xmm0
	cvtsi2ss	%r9d, %xmm2
	mulss	96(%r14), %xmm2
	subss	%xmm0, %xmm2
	addss	%xmm2, %xmm3
	movss	%xmm3, (%rax)
.LVL1061:
	.loc 1 527 0
	jge	.L421
.L518:
	.loc 1 528 0
	movq	-136(%rbp), %r8
	movq	%rsi, %r9
	subq	%r11, %r9
	pxor	%xmm1, %xmm1
	movss	68(%r14), %xmm0
	.loc 1 527 0
	cmpl	-104(%rbp), %ebx
	.loc 1 528 0
	movzbl	(%r9,%r8), %r9d
	movq	-144(%rbp), %r8
	mulss	(%rax,%r8), %xmm0
	cvtsi2ss	%r9d, %xmm1
	mulss	100(%r14), %xmm1
	subss	%xmm0, %xmm1
	movaps	%xmm1, %xmm2
	addss	%xmm3, %xmm2
	movss	%xmm2, (%rax)
.LVL1062:
	.loc 1 527 0
	jge	.L423
.L519:
	.loc 1 528 0
	movq	-152(%rbp), %r8
	movq	%rsi, %r9
	subq	%r11, %r9
	pxor	%xmm0, %xmm0
	movss	72(%r14), %xmm1
	.loc 1 527 0
	cmpl	%r15d, %ebx
	.loc 1 528 0
	movzbl	(%r9,%r8), %r9d
	movq	-160(%rbp), %r8
	mulss	(%rax,%r8), %xmm1
	cvtsi2ss	%r9d, %xmm0
	mulss	104(%r14), %xmm0
	subss	%xmm1, %xmm0
	movaps	%xmm0, %xmm1
	addss	%xmm2, %xmm1
	movss	%xmm1, (%rax)
.LVL1063:
	.loc 1 527 0
	jge	.L425
.L520:
	.loc 1 528 0
	movzbl	(%rsi), %r9d
	pxor	%xmm0, %xmm0
	movq	-168(%rbp), %r8
	movss	76(%r14), %xmm2
	cvtsi2ss	%r9d, %xmm0
	mulss	(%rax,%r8), %xmm2
	mulss	108(%r14), %xmm0
	subss	%xmm2, %xmm0
	addss	%xmm1, %xmm0
.L426:
	movss	%xmm0, (%rax)
.LVL1064:
.LBE7893:
.LBE7892:
	.loc 1 525 0
	addl	$1, %edi
.LVL1065:
	addq	$1, %rcx
.LVL1066:
	addq	$4, %rax
.LVL1067:
	addq	$4, %rdx
.LVL1068:
.LBB7895:
	.loc 1 533 0
	addss	-4(%rdx), %xmm0
	movss	%xmm0, -4(%rdx)
.LVL1069:
.LBE7895:
	.loc 1 525 0
	cmpl	%edi, %r12d
	jle	.L503
	addq	$1, %rsi
.LVL1070:
	.loc 1 525 0 is_stmt 0 discriminator 1
	leal	(%rdi,%r10), %r9d
	cmpl	-112(%rbp), %r9d
	jge	.L503
.LVL1071:
.L470:
.LBB7896:
.LBB7894:
	.loc 1 527 0 is_stmt 1 discriminator 1
	cmpl	-88(%rbp), %ebx
	jl	.L517
	.loc 1 530 0
	movzbl	(%rcx), %r9d
	pxor	%xmm0, %xmm0
	movss	96(%r14), %xmm2
	.loc 1 527 0
	cmpl	%r13d, %ebx
	.loc 1 530 0
	subss	64(%r14), %xmm2
	movss	(%rax), %xmm3
	cvtsi2ss	%r9d, %xmm0
	mulss	%xmm0, %xmm2
	addss	%xmm2, %xmm3
	movss	%xmm3, (%rax)
.LVL1072:
	.loc 1 527 0
	jl	.L518
.L421:
	.loc 1 530 0
	movzbl	(%rcx), %r9d
	pxor	%xmm0, %xmm0
	movss	100(%r14), %xmm1
	subss	68(%r14), %xmm1
	.loc 1 527 0
	cmpl	-104(%rbp), %ebx
	.loc 1 530 0
	cvtsi2ss	%r9d, %xmm0
	mulss	%xmm0, %xmm1
	movaps	%xmm1, %xmm2
	addss	%xmm3, %xmm2
	movss	%xmm2, (%rax)
.LVL1073:
	.loc 1 527 0
	jl	.L519
.L423:
	.loc 1 530 0
	movzbl	(%rcx), %r9d
	pxor	%xmm3, %xmm3
	movss	104(%r14), %xmm0
	.loc 1 527 0
	cmpl	%r15d, %ebx
	.loc 1 530 0
	subss	72(%r14), %xmm0
	cvtsi2ss	%r9d, %xmm3
	mulss	%xmm3, %xmm0
	movaps	%xmm0, %xmm1
	addss	%xmm2, %xmm1
	movss	%xmm1, (%rax)
.LVL1074:
	.loc 1 527 0
	jl	.L520
.L425:
	.loc 1 530 0
	movzbl	(%rcx), %r9d
	pxor	%xmm2, %xmm2
	movss	108(%r14), %xmm0
	subss	76(%r14), %xmm0
	cvtsi2ss	%r9d, %xmm2
	mulss	%xmm2, %xmm0
	addss	%xmm1, %xmm0
	jmp	.L426
.LVL1075:
	.p2align 4,,10
	.p2align 3
.L508:
	movq	-112(%rbp), %r15
	movl	72(%r15), %r9d
.LVL1076:
	jmp	.L433
.LVL1077:
.L417:
	movl	-96(%rbp), %edi
	addl	%edi, -172(%rbp)
	movq	-248(%rbp), %rbx
.LVL1078:
	movl	-172(%rbp), %eax
.LVL1079:
	addq	%rbx, -192(%rbp)
	addl	%edi, -176(%rbp)
	movq	-240(%rbp), %rbx
	addq	%rbx, -184(%rbp)
	cmpl	%eax, -216(%rbp)
	jg	.L412
	leaq	-64(%rbp), %rsi
	leaq	-72(%rbp), %rdi
	movq	%r14, %r13
	movq	%r15, %r14
	call	GOMP_loop_dynamic_next
.LVL1080:
	testb	%al, %al
	jne	.L413
	movq	%r15, %r10
	movq	%r13, %r14
.LVL1081:
.L409:
	movq	%r10, -88(%rbp)
	call	GOMP_loop_end
.LVL1082:
.LBE7894:
.LBE7896:
.LBE7891:
.LBE7897:
.LBE7710:
.LBE7598:
.LBE7597:
.LBB7900:
	.loc 1 539 0
	movq	-88(%rbp), %r10
	movl	72(%r10), %eax
	movq	%r10, -96(%rbp)
	movl	%eax, %r15d
	movl	%eax, -172(%rbp)
	addl	$3, %eax
	testl	%r15d, %r15d
	cmovns	%r15d, %eax
	sarl	$2, %eax
	movl	%eax, %ebx
	call	omp_get_num_threads
.LVL1083:
	movl	%eax, %r12d
	call	omp_get_thread_num
.LVL1084:
	movl	%ebx, %edi
	imull	%eax, %edi
	leal	(%rdi,%rbx), %edx
	movl	%edi, %esi
	movl	%edi, -88(%rbp)
	cmpl	%r15d, %edx
	cmovg	%r15d, %edx
	cmpl	%r15d, %esi
	movl	%edx, -152(%rbp)
	jge	.L459
	movslq	%eax, %rdi
	addl	%r12d, %eax
	movq	-96(%rbp), %r10
	movq	%rdi, -160(%rbp)
	movl	%ebx, %edi
	imull	%r12d, %edi
	movq	%r10, %r15
	movl	%edi, -192(%rbp)
	movl	%eax, %edi
	addl	$1, %eax
	imull	%ebx, %edi
	imull	%ebx, %eax
	movl	%edi, -168(%rbp)
	subl	%edi, %eax
	movl	%eax, -184(%rbp)
.L463:
	movslq	-88(%rbp), %r8
.L462:
.LVL1085:
.LBB7901:
.LBB7902:
	.loc 1 543 0
	movl	76(%r15), %eax
	.loc 1 605 0
	movq	%rsp, -96(%rbp)
.LVL1086:
.LBB7903:
.LBB7904:
	.loc 2 430 0
	movq	%r8, %rdi
.LBE7904:
.LBE7903:
.LBB7909:
.LBB7910:
	movq	-160(%rbp), %r10
.LBE7910:
.LBE7909:
.LBB7912:
.LBB7913:
	movq	%r8, %r13
.LBE7913:
.LBE7912:
.LBB7918:
.LBB7919:
	.loc 5 90 0
	xorl	%esi, %esi
.LBE7919:
.LBE7918:
.LBB7922:
.LBB7914:
	.loc 2 430 0
	movq	%r8, -144(%rbp)
.LBE7914:
.LBE7922:
	.loc 1 543 0
	addl	$24, %eax
	cltq
	leaq	18(,%rax,4), %rax
	andq	$-16, %rax
	subq	%rax, %rsp
	.loc 1 545 0
	movq	48(%r15), %rax
	.loc 1 543 0
	leaq	3(%rsp), %r9
.LBB7923:
.LBB7905:
	.loc 2 430 0
	movq	72(%rax), %rdx
.LBE7905:
.LBE7923:
	.loc 1 543 0
	shrq	$2, %r9
	leaq	0(,%r9,4), %r12
.LVL1087:
.LBB7924:
.LBB7925:
	.loc 5 53 0
	movq	%r9, -136(%rbp)
.LBE7925:
.LBE7924:
.LBB7929:
.LBB7906:
	.loc 2 430 0
	imulq	(%rdx), %rdi
.LBE7906:
.LBE7929:
	.loc 1 552 0
	addq	$48, %r12
.LVL1088:
.LBB7930:
.LBB7907:
	.loc 2 430 0
	movq	%rdi, %rdx
	addq	16(%rax), %rdx
.LBE7907:
.LBE7930:
	.loc 1 546 0
	movq	56(%r15), %rax
.LVL1089:
.LBB7931:
.LBB7908:
	.loc 2 430 0
	movq	%rdx, -104(%rbp)
.LBE7908:
.LBE7931:
.LBB7932:
.LBB7911:
	movq	72(%rax), %rdx
	imulq	(%rdx), %r10
	addq	16(%rax), %r10
.LVL1090:
.LBE7911:
.LBE7932:
	.loc 1 547 0
	movq	40(%r15), %rax
.LVL1091:
.LBB7933:
.LBB7915:
	.loc 2 430 0
	movq	72(%rax), %rdx
.LBE7915:
.LBE7933:
	.loc 1 551 0
	leaq	48(%r10), %rbx
	movq	%r10, -128(%rbp)
.LBB7934:
.LBB7916:
	.loc 2 430 0
	imulq	(%rdx), %r13
.LBE7916:
.LBE7934:
.LBB7935:
.LBB7926:
	.loc 5 53 0
	movl	8(,%r9,4), %edx
.LBE7926:
.LBE7935:
.LBB7936:
.LBB7920:
	.loc 5 90 0
	movq	%rbx, %rdi
.LBE7920:
.LBE7936:
.LBB7937:
.LBB7917:
	.loc 2 430 0
	addq	16(%rax), %r13
.LVL1092:
.LBE7917:
.LBE7937:
.LBB7938:
.LBB7927:
	.loc 5 53 0
	movq	0(,%r9,4), %rax
.LVL1093:
	movl	%edx, 8(%r10)
.LVL1094:
.LBE7927:
.LBE7938:
.LBB7939:
.LBB7940:
	movl	%edx, 20(%r10)
.LVL1095:
	movq	%rax, 12(%r10)
.LBE7940:
.LBE7939:
.LBB7941:
.LBB7928:
	movq	%rax, (%r10)
.LBE7928:
.LBE7941:
.LBB7942:
.LBB7943:
	movq	%rax, 24(%r10)
	movq	8(%r10), %rax
	movq	%rax, 32(%r10)
	movq	16(%r10), %rax
	movq	%rax, 40(%r10)
.LVL1096:
.LBE7943:
.LBE7942:
.LBB7944:
.LBB7921:
	.loc 5 90 0
	movslq	76(%r15), %rdx
	salq	$2, %rdx
.LVL1097:
	call	memset
.LVL1098:
.LBE7921:
.LBE7944:
	.loc 1 552 0
	movslq	76(%r15), %rcx
.LBB7945:
.LBB7946:
	.loc 5 53 0
	movq	-104(%rbp), %rsi
	movq	%r12, %rdi
	leaq	0(,%rcx,4), %rdx
.LBE7946:
.LBE7945:
	.loc 1 552 0
	movl	%ecx, -120(%rbp)
.LVL1099:
.LBB7948:
.LBB7947:
	.loc 5 53 0
	movq	%rcx, -112(%rbp)
	call	memcpy
.LVL1100:
.LBE7947:
.LBE7948:
.LBB7949:
.LBB7950:
	movq	-128(%rbp), %r10
	movq	-136(%rbp), %r9
.LBE7950:
.LBE7949:
.LBB7953:
	.loc 1 556 0
	movl	-120(%rbp), %r11d
	movq	-112(%rbp), %rcx
	movq	-144(%rbp), %r8
.LBE7953:
.LBB7986:
.LBB7951:
	.loc 5 53 0
	movq	(%r10), %rax
.LBE7951:
.LBE7986:
.LBB7987:
	.loc 1 556 0
	testl	%r11d, %r11d
.LBE7987:
.LBB7988:
.LBB7952:
	.loc 5 53 0
	movq	%rax, 0(,%r9,4)
	movq	8(%r10), %rax
	movq	%rax, 8(,%r9,4)
	movq	16(%r10), %rax
	movq	%rax, 16(,%r9,4)
	movq	24(%r10), %rax
	movq	%rax, 24(,%r9,4)
	movq	32(%r10), %rax
	movq	%rax, 32(,%r9,4)
	movq	40(%r10), %rax
	movq	%rax, 40(,%r9,4)
.LVL1101:
.LBE7952:
.LBE7988:
.LBB7989:
	.loc 1 556 0
	jle	.L521
	movss	36(,%r9,4), %xmm1
	.loc 1 556 0 is_stmt 0 discriminator 2
	xorl	%esi, %esi
	movss	40(,%r9,4), %xmm7
	movss	44(,%r9,4), %xmm6
	movss	12(,%r9,4), %xmm0
	movss	16(,%r9,4), %xmm5
	movss	20(,%r9,4), %xmm4
.LVL1102:
	.p2align 4,,10
	.p2align 3
.L468:
.LBB7954:
	.loc 1 567 0 is_stmt 1 discriminator 2
	movss	-24(%r12), %xmm2
.LBB7955:
.LBB7956:
	.loc 4 946 0 discriminator 2
	movaps	%xmm2, %xmm8
.LBE7956:
.LBE7955:
	.loc 1 567 0 discriminator 2
	movss	(%r12), %xmm3
.LBB7959:
.LBB7957:
	.loc 4 946 0 discriminator 2
	unpcklps	%xmm0, %xmm8
	movaps	%xmm3, %xmm0
	unpcklps	%xmm1, %xmm0
.LBE7957:
.LBE7959:
.LBB7960:
.LBB7961:
	movss	-12(%rbx), %xmm1
	insertps	$0x10, -24(%rbx), %xmm1
.LBE7961:
.LBE7960:
.LBB7964:
.LBB7958:
	movlhps	%xmm8, %xmm0
.LBE7958:
.LBE7964:
.LBB7965:
.LBB7962:
	movss	-36(%rbx), %xmm8
	insertps	$0x10, -48(%rbx), %xmm8
.LBE7962:
.LBE7965:
.LBB7966:
.LBB7967:
	.loc 4 189 0 discriminator 2
	mulps	32(%r14), %xmm0
.LBE7967:
.LBE7966:
.LBB7969:
.LBB7963:
	.loc 4 946 0 discriminator 2
	movlhps	%xmm8, %xmm1
.LBE7963:
.LBE7969:
.LBB7970:
.LBB7968:
	.loc 4 189 0 discriminator 2
	mulps	16(%r14), %xmm1
	subps	%xmm1, %xmm0
	movaps	%xmm7, %xmm1
	movaps	%xmm6, %xmm7
	movaps	%xmm3, %xmm6
.LBE7968:
.LBE7970:
.LBB7971:
.LBB7972:
	.loc 7 58 0 discriminator 2
	haddps	%xmm0, %xmm0
.LBE7972:
.LBE7971:
.LBB7973:
.LBB7974:
	haddps	%xmm0, %xmm0
.LBE7974:
.LBE7973:
.LBB7975:
.LBB7976:
	.loc 4 960 0 discriminator 2
	movss	%xmm0, (%rbx)
.LBE7976:
.LBE7975:
.LBB7977:
.LBB7978:
.LBB7979:
.LBB7980:
.LBB7981:
.LBB7982:
	.loc 3 63 0 discriminator 2
	cvtss2sd	%xmm0, %xmm0
.LBE7982:
.LBE7981:
.LBB7983:
.LBB7984:
	.loc 3 827 0 discriminator 2
	cvtsd2si	%xmm0, %edx
	movaps	%xmm5, %xmm0
	movaps	%xmm4, %xmm5
	movaps	%xmm2, %xmm4
.LBE7984:
.LBE7983:
.LBE7980:
.LBE7979:
.LBE7978:
.LBE7977:
	.loc 1 575 0 discriminator 2
	testl	%edx, %edx
	setg	%al
	negl	%eax
	cmpl	$255, %edx
	cmovbe	%edx, %eax
.LBE7954:
	.loc 1 556 0 discriminator 2
	addl	$1, %esi
.LVL1103:
	addq	$4, %r12
.LVL1104:
.LBB7985:
	.loc 1 575 0 discriminator 2
	movb	%al, 0(%r13)
.LBE7985:
	.loc 1 556 0 discriminator 2
	movslq	76(%r15), %rax
	addq	$4, %rbx
.LVL1105:
	addq	$1, %r13
.LVL1106:
	cmpl	%esi, %eax
	jg	.L468
.LVL1107:
.L469:
.LBE7989:
	.loc 1 577 0
	movq	40(%r15), %rdx
.LVL1108:
	movq	%r8, %rdi
	movq	%r8, -104(%rbp)
.LBB7990:
.LBB7991:
	.loc 2 430 0
	movq	72(%rdx), %rsi
.LBE7991:
.LBE7990:
	.loc 1 577 0
	imulq	(%rsi), %rdi
.LBB7992:
.LBB7993:
	.loc 5 90 0
	xorl	%esi, %esi
.LBE7993:
.LBE7992:
	.loc 1 577 0
	leaq	-1(%rax,%rdi), %r13
.LVL1109:
.LBB7996:
.LBB7997:
	.loc 5 53 0
	movq	-12(%r12), %rax
.LBE7997:
.LBE7996:
	.loc 1 577 0
	addq	16(%rdx), %r13
.LVL1110:
.LBB8000:
.LBB7998:
	.loc 5 53 0
	movl	-4(%r12), %edx
.LVL1111:
.LBE7998:
.LBE8000:
.LBB8001:
.LBB7994:
	.loc 5 90 0
	movq	%rbx, %rdi
.LBE7994:
.LBE8001:
	.loc 1 584 0
	subq	$4, %rbx
.LVL1112:
.LBB8002:
.LBB8003:
	.loc 5 53 0
	movq	%rax, 16(%rbx)
.LVL1113:
.LBE8003:
.LBE8002:
.LBB8005:
.LBB7999:
	movq	%rax, 4(%rbx)
	movl	%edx, 12(%rbx)
.LVL1114:
.LBE7999:
.LBE8005:
.LBB8006:
.LBB8007:
	movq	%rax, 28(%rbx)
	movq	12(%rbx), %rax
.LBE8007:
.LBE8006:
.LBB8009:
.LBB8004:
	movl	%edx, 24(%rbx)
.LVL1115:
.LBE8004:
.LBE8009:
.LBB8010:
.LBB8008:
	movq	%rax, 36(%rbx)
	movq	20(%rbx), %rax
	movq	%rax, 44(%rbx)
.LVL1116:
.LBE8008:
.LBE8010:
	.loc 1 581 0
	movslq	76(%r15), %rdx
	salq	$2, %rdx
.LVL1117:
.LBB8011:
.LBB7995:
	.loc 5 90 0
	subq	%rdx, %rdi
.LVL1118:
	call	memset
.LVL1119:
.LBE7995:
.LBE8011:
.LBB8012:
.LBB8013:
	.loc 5 53 0
	movq	4(%rbx), %rax
.LBE8013:
.LBE8012:
.LBB8017:
	.loc 1 585 0
	movl	76(%r15), %edx
	movq	-104(%rbp), %r8
.LBE8017:
.LBB8208:
.LBB8014:
	.loc 5 53 0
	movq	%rax, (%r12)
	movq	12(%rbx), %rax
.LBE8014:
.LBE8208:
.LBB8209:
	.loc 1 585 0
	movl	%edx, %esi
.LBE8209:
.LBB8210:
.LBB8015:
	.loc 5 53 0
	movq	%rax, 8(%r12)
	movq	20(%rbx), %rax
	movq	%rax, 16(%r12)
	movq	28(%rbx), %rax
	movq	%rax, 24(%r12)
	movq	36(%rbx), %rax
	movq	%rax, 32(%r12)
	movq	44(%rbx), %rax
.LBE8015:
.LBE8210:
.LBB8211:
	.loc 1 585 0
	subl	$1, %esi
.LBE8211:
.LBB8212:
.LBB8016:
	.loc 5 53 0
	movq	%rax, 40(%r12)
.LVL1120:
.LBE8016:
.LBE8212:
	.loc 1 583 0
	leaq	-4(%r12), %rax
.LVL1121:
.LBB8213:
	.loc 1 585 0
	js	.L466
	cmpl	$4, %edx
	jle	.L475
	subl	$5, %edx
	movq	$-20, %rdi
	shrl	$2, %edx
	movss	20(%r12), %xmm5
	salq	$4, %rdx
	movss	16(%r12), %xmm4
	subq	%rdx, %rdi
	movss	12(%r12), %xmm7
	movss	44(%r12), %xmm3
	movss	40(%r12), %xmm2
	movss	36(%r12), %xmm6
	addq	%rdi, %r12
.LVL1122:
	.p2align 4,,10
	.p2align 3
.L465:
.LBB8018:
	.loc 1 596 0 discriminator 2
	movss	12(%rax), %xmm8
	movss	36(%rax), %xmm9
.LBB8019:
.LBB8020:
	.loc 4 946 0 discriminator 2
	movaps	%xmm8, %xmm0
	movaps	%xmm9, %xmm1
	unpcklps	%xmm5, %xmm0
.LBE8020:
.LBE8019:
	.loc 1 596 0 discriminator 2
	movss	8(%rax), %xmm5
.LBB8033:
.LBB8021:
	.loc 4 946 0 discriminator 2
	unpcklps	%xmm3, %xmm1
.LBE8021:
.LBE8033:
.LBB8034:
.LBB8035:
	movss	36(%rbx), %xmm3
	insertps	$0x10, 48(%rbx), %xmm3
.LBE8035:
.LBE8034:
.LBB8049:
.LBB8022:
	movlhps	%xmm1, %xmm0
.LBE8022:
.LBE8049:
.LBB8050:
.LBB8036:
	movss	12(%rbx), %xmm1
	insertps	$0x10, 24(%rbx), %xmm1
.LBE8036:
.LBE8050:
.LBB8051:
.LBB8052:
	.loc 4 189 0 discriminator 2
	mulps	48(%r14), %xmm0
.LBE8052:
.LBE8051:
.LBB8062:
.LBB8037:
	.loc 4 946 0 discriminator 2
	movlhps	%xmm3, %xmm1
.LBE8037:
.LBE8062:
	.loc 1 596 0 discriminator 2
	movss	32(%rax), %xmm3
.LBB8063:
.LBB8053:
	.loc 4 189 0 discriminator 2
	mulps	16(%r14), %xmm1
	subps	%xmm1, %xmm0
.LBE8053:
.LBE8063:
.LBB8064:
.LBB8065:
.LBB8066:
.LBB8067:
.LBB8068:
.LBB8069:
	.loc 3 63 0 discriminator 2
	pxor	%xmm1, %xmm1
.LBE8069:
.LBE8068:
.LBE8067:
.LBE8066:
.LBE8065:
.LBE8064:
.LBB8135:
.LBB8136:
	.loc 7 58 0 discriminator 2
	haddps	%xmm0, %xmm0
.LBE8136:
.LBE8135:
.LBB8141:
.LBB8142:
	haddps	%xmm0, %xmm0
.LBE8142:
.LBE8141:
.LBB8147:
.LBB8148:
	.loc 4 960 0 discriminator 2
	movss	%xmm0, (%rbx)
.LBE8148:
.LBE8147:
.LBB8153:
.LBB8124:
.LBB8113:
.LBB8102:
.LBB8081:
.LBB8070:
	.loc 3 63 0 discriminator 2
	movzbl	0(%r13), %edx
	cvtsi2ss	%edx, %xmm1
	addss	%xmm1, %xmm0
.LBE8070:
.LBE8081:
.LBE8102:
.LBE8113:
.LBE8124:
.LBE8153:
.LBB8154:
.LBB8023:
	.loc 4 946 0 discriminator 2
	movaps	%xmm3, %xmm1
	unpcklps	%xmm2, %xmm1
.LBE8023:
.LBE8154:
.LBB8155:
.LBB8125:
.LBB8114:
.LBB8103:
.LBB8082:
.LBB8071:
	.loc 3 63 0 discriminator 2
	cvtss2sd	%xmm0, %xmm0
.LBE8071:
.LBE8082:
.LBB8083:
.LBB8084:
	.loc 3 827 0 discriminator 2
	cvtsd2si	%xmm0, %ecx
.LBE8084:
.LBE8083:
.LBE8103:
.LBE8114:
.LBE8125:
.LBE8155:
.LBB8156:
.LBB8024:
	.loc 4 946 0 discriminator 2
	movaps	%xmm5, %xmm0
	unpcklps	%xmm4, %xmm0
.LBE8024:
.LBE8156:
	.loc 1 596 0 discriminator 2
	movss	4(%rax), %xmm4
.LBB8157:
.LBB8025:
	.loc 4 946 0 discriminator 2
	movlhps	%xmm1, %xmm0
.LBE8025:
.LBE8157:
	.loc 1 604 0 discriminator 2
	testl	%ecx, %ecx
	setg	%dl
	negl	%edx
	cmpl	$255, %ecx
	cmovbe	%ecx, %edx
	movb	%dl, 0(%r13)
.LBB8158:
.LBB8038:
	.loc 4 946 0 discriminator 2
	movss	32(%rbx), %xmm2
	movss	8(%rbx), %xmm1
	insertps	$0x10, 44(%rbx), %xmm2
	insertps	$0x10, 20(%rbx), %xmm1
.LBE8038:
.LBE8158:
.LBB8159:
.LBB8054:
	.loc 4 189 0 discriminator 2
	mulps	48(%r14), %xmm0
.LBE8054:
.LBE8159:
.LBB8160:
.LBB8039:
	.loc 4 946 0 discriminator 2
	movlhps	%xmm2, %xmm1
.LBE8039:
.LBE8160:
	.loc 1 596 0 discriminator 2
	movss	28(%rax), %xmm2
.LBB8161:
.LBB8055:
	.loc 4 189 0 discriminator 2
	mulps	16(%r14), %xmm1
	subps	%xmm1, %xmm0
.LBE8055:
.LBE8161:
.LBB8162:
.LBB8126:
.LBB8115:
.LBB8104:
.LBB8089:
.LBB8072:
	.loc 3 63 0 discriminator 2
	pxor	%xmm1, %xmm1
.LBE8072:
.LBE8089:
.LBE8104:
.LBE8115:
.LBE8126:
.LBE8162:
.LBB8163:
.LBB8137:
	.loc 7 58 0 discriminator 2
	haddps	%xmm0, %xmm0
.LBE8137:
.LBE8163:
.LBB8164:
.LBB8143:
	haddps	%xmm0, %xmm0
.LBE8143:
.LBE8164:
.LBB8165:
.LBB8149:
	.loc 4 960 0 discriminator 2
	movss	%xmm0, -4(%rbx)
.LBE8149:
.LBE8165:
.LBB8166:
.LBB8127:
.LBB8116:
.LBB8105:
.LBB8090:
.LBB8073:
	.loc 3 63 0 discriminator 2
	movzbl	-1(%r13), %edx
	cvtsi2ss	%edx, %xmm1
	addss	%xmm1, %xmm0
.LBE8073:
.LBE8090:
.LBE8105:
.LBE8116:
.LBE8127:
.LBE8166:
.LBB8167:
.LBB8026:
	.loc 4 946 0 discriminator 2
	movaps	%xmm2, %xmm1
	unpcklps	%xmm6, %xmm1
.LBE8026:
.LBE8167:
.LBB8168:
.LBB8128:
.LBB8117:
.LBB8106:
.LBB8091:
.LBB8074:
	.loc 3 63 0 discriminator 2
	cvtss2sd	%xmm0, %xmm0
.LBE8074:
.LBE8091:
.LBB8092:
.LBB8085:
	.loc 3 827 0 discriminator 2
	cvtsd2si	%xmm0, %ecx
.LBE8085:
.LBE8092:
.LBE8106:
.LBE8117:
.LBE8128:
.LBE8168:
.LBB8169:
.LBB8027:
	.loc 4 946 0 discriminator 2
	movaps	%xmm4, %xmm0
	unpcklps	%xmm7, %xmm0
	movlhps	%xmm1, %xmm0
.LBE8027:
.LBE8169:
	.loc 1 604 0 discriminator 2
	testl	%ecx, %ecx
	setg	%dl
	negl	%edx
	cmpl	$255, %ecx
	cmovbe	%ecx, %edx
	movb	%dl, -1(%r13)
.LBB8170:
.LBB8040:
	.loc 4 946 0 discriminator 2
	movss	28(%rbx), %xmm6
	movss	4(%rbx), %xmm1
	insertps	$0x10, 40(%rbx), %xmm6
	insertps	$0x10, 16(%rbx), %xmm1
.LBE8040:
.LBE8170:
.LBB8171:
.LBB8056:
	.loc 4 189 0 discriminator 2
	mulps	48(%r14), %xmm0
.LBE8056:
.LBE8171:
.LBB8172:
.LBB8041:
	.loc 4 946 0 discriminator 2
	movlhps	%xmm6, %xmm1
.LBE8041:
.LBE8172:
.LBB8173:
.LBB8057:
	.loc 4 189 0 discriminator 2
	mulps	16(%r14), %xmm1
	subps	%xmm1, %xmm0
.LBE8057:
.LBE8173:
.LBB8174:
.LBB8129:
.LBB8118:
.LBB8107:
.LBB8093:
.LBB8075:
	.loc 3 63 0 discriminator 2
	pxor	%xmm1, %xmm1
.LBE8075:
.LBE8093:
.LBE8107:
.LBE8118:
.LBE8129:
.LBE8174:
.LBB8175:
.LBB8138:
	.loc 7 58 0 discriminator 2
	haddps	%xmm0, %xmm0
.LBE8138:
.LBE8175:
.LBB8176:
.LBB8144:
	haddps	%xmm0, %xmm0
.LBE8144:
.LBE8176:
.LBB8177:
.LBB8150:
	.loc 4 960 0 discriminator 2
	movss	%xmm0, -8(%rbx)
.LBE8150:
.LBE8177:
.LBB8178:
.LBB8130:
.LBB8119:
.LBB8108:
.LBB8094:
.LBB8076:
	.loc 3 63 0 discriminator 2
	movzbl	-2(%r13), %edx
	cvtsi2ss	%edx, %xmm1
	addss	%xmm1, %xmm0
	cvtss2sd	%xmm0, %xmm0
.LBE8076:
.LBE8094:
.LBB8095:
.LBB8086:
	.loc 3 827 0 discriminator 2
	cvtsd2si	%xmm0, %ecx
.LBE8086:
.LBE8095:
.LBE8108:
.LBE8119:
.LBE8130:
.LBE8178:
	.loc 1 604 0 discriminator 2
	testl	%ecx, %ecx
	setg	%dl
	negl	%edx
	cmpl	$255, %ecx
	cmovbe	%ecx, %edx
	movb	%dl, -2(%r13)
	.loc 1 596 0 discriminator 2
	movss	(%rax), %xmm7
	movss	24(%rax), %xmm6
.LBB8179:
.LBB8028:
	.loc 4 946 0 discriminator 2
	movaps	%xmm6, %xmm1
	movaps	%xmm7, %xmm0
	unpcklps	%xmm9, %xmm1
	unpcklps	%xmm8, %xmm0
.LBE8028:
.LBE8179:
.LBB8180:
.LBB8042:
	movss	24(%rbx), %xmm8
	insertps	$0x10, 36(%rbx), %xmm8
.LBE8042:
.LBE8180:
.LBB8181:
.LBB8029:
	movlhps	%xmm1, %xmm0
.LBE8029:
.LBE8181:
.LBB8182:
.LBB8043:
	movss	(%rbx), %xmm1
	insertps	$0x10, 12(%rbx), %xmm1
.LBE8043:
.LBE8182:
.LBB8183:
.LBB8058:
	.loc 4 189 0 discriminator 2
	mulps	48(%r14), %xmm0
.LBE8058:
.LBE8183:
.LBB8184:
.LBB8044:
	.loc 4 946 0 discriminator 2
	movlhps	%xmm8, %xmm1
.LBE8044:
.LBE8184:
.LBB8185:
.LBB8059:
	.loc 4 189 0 discriminator 2
	mulps	16(%r14), %xmm1
	subps	%xmm1, %xmm0
.LBE8059:
.LBE8185:
.LBB8186:
.LBB8131:
.LBB8120:
.LBB8109:
.LBB8096:
.LBB8077:
	.loc 3 63 0 discriminator 2
	pxor	%xmm1, %xmm1
.LBE8077:
.LBE8096:
.LBE8109:
.LBE8120:
.LBE8131:
.LBE8186:
.LBB8187:
.LBB8139:
	.loc 7 58 0 discriminator 2
	haddps	%xmm0, %xmm0
.LBE8139:
.LBE8187:
.LBB8188:
.LBB8145:
	haddps	%xmm0, %xmm0
.LBE8145:
.LBE8188:
.LBB8189:
.LBB8151:
	.loc 4 960 0 discriminator 2
	movss	%xmm0, -12(%rbx)
.LBE8151:
.LBE8189:
.LBB8190:
.LBB8132:
.LBB8121:
.LBB8110:
.LBB8097:
.LBB8078:
	.loc 3 63 0 discriminator 2
	movzbl	-3(%r13), %edx
	cvtsi2ss	%edx, %xmm1
	addss	%xmm1, %xmm0
	cvtss2sd	%xmm0, %xmm0
.LBE8078:
.LBE8097:
.LBB8098:
.LBB8087:
	.loc 3 827 0 discriminator 2
	cvtsd2si	%xmm0, %ecx
.LBE8087:
.LBE8098:
.LBE8110:
.LBE8121:
.LBE8132:
.LBE8190:
	.loc 1 604 0 discriminator 2
	testl	%ecx, %ecx
	setg	%dl
	negl	%edx
	cmpl	$255, %ecx
	cmovbe	%ecx, %edx
.LBE8018:
	.loc 1 585 0 discriminator 2
	subq	$16, %rax
	subl	$4, %esi
.LVL1123:
.LBB8205:
	.loc 1 604 0 discriminator 2
	movb	%dl, -3(%r13)
.LBE8205:
	.loc 1 585 0 discriminator 2
	subq	$16, %rbx
.LVL1124:
	subq	$4, %r13
.LVL1125:
	cmpq	%r12, %rax
	jne	.L465
.LVL1126:
	.p2align 4,,10
	.p2align 3
.L467:
.LBB8206:
.LBB8191:
.LBB8030:
	.loc 4 946 0
	movss	36(%r12), %xmm1
	movss	12(%r12), %xmm0
	insertps	$0x10, 48(%r12), %xmm1
.LBE8030:
.LBE8191:
.LBB8192:
.LBB8045:
	movss	36(%rbx), %xmm2
.LBE8045:
.LBE8192:
.LBB8193:
.LBB8031:
	insertps	$0x10, 24(%r12), %xmm0
.LBE8031:
.LBE8193:
.LBB8194:
.LBB8046:
	insertps	$0x10, 48(%rbx), %xmm2
.LBE8046:
.LBE8194:
.LBB8195:
.LBB8032:
	movlhps	%xmm1, %xmm0
.LBE8032:
.LBE8195:
.LBB8196:
.LBB8047:
	movss	12(%rbx), %xmm1
	insertps	$0x10, 24(%rbx), %xmm1
.LBE8047:
.LBE8196:
.LBB8197:
.LBB8060:
	.loc 4 189 0
	mulps	48(%r14), %xmm0
.LBE8060:
.LBE8197:
.LBB8198:
.LBB8048:
	.loc 4 946 0
	movlhps	%xmm2, %xmm1
.LBE8048:
.LBE8198:
.LBB8199:
.LBB8061:
	.loc 4 189 0
	mulps	16(%r14), %xmm1
	subps	%xmm1, %xmm0
.LBE8061:
.LBE8199:
.LBB8200:
.LBB8133:
.LBB8122:
.LBB8111:
.LBB8099:
.LBB8079:
	.loc 3 63 0
	pxor	%xmm1, %xmm1
.LBE8079:
.LBE8099:
.LBE8111:
.LBE8122:
.LBE8133:
.LBE8200:
.LBB8201:
.LBB8140:
	.loc 7 58 0
	haddps	%xmm0, %xmm0
.LBE8140:
.LBE8201:
.LBB8202:
.LBB8146:
	haddps	%xmm0, %xmm0
.LBE8146:
.LBE8202:
.LBB8203:
.LBB8152:
	.loc 4 960 0
	movss	%xmm0, (%rbx)
.LBE8152:
.LBE8203:
.LBB8204:
.LBB8134:
.LBB8123:
.LBB8112:
.LBB8100:
.LBB8080:
	.loc 3 63 0
	movzbl	0(%r13), %eax
	cvtsi2ss	%eax, %xmm1
	addss	%xmm1, %xmm0
	cvtss2sd	%xmm0, %xmm0
.LBE8080:
.LBE8100:
.LBB8101:
.LBB8088:
	.loc 3 827 0
	cvtsd2si	%xmm0, %edx
.LBE8088:
.LBE8101:
.LBE8112:
.LBE8123:
.LBE8134:
.LBE8204:
	.loc 1 604 0
	testl	%edx, %edx
	setg	%al
	negl	%eax
	cmpl	$255, %edx
	cmovbe	%edx, %eax
.LBE8206:
	.loc 1 585 0
	subl	$1, %esi
.LVL1127:
	subq	$4, %r12
.LVL1128:
.LBB8207:
	.loc 1 604 0
	movb	%al, 0(%r13)
.LBE8207:
	.loc 1 585 0
	subq	$4, %rbx
.LVL1129:
	subq	$1, %r13
.LVL1130:
	cmpl	$-1, %esi
	jne	.L467
.LVL1131:
.L466:
	addl	$1, -88(%rbp)
.LVL1132:
	addq	$1, %r8
.LBE8213:
	movq	-96(%rbp), %rsp
	movl	-88(%rbp), %eax
.LVL1133:
	cmpl	%eax, -152(%rbp)
	jg	.L462
	movl	-168(%rbp), %edi
	movl	-172(%rbp), %ebx
.LVL1134:
	movl	%edi, %eax
.LVL1135:
	addl	-184(%rbp), %eax
	movl	%edi, -88(%rbp)
.LVL1136:
	cmpl	%ebx, %eax
	cmovg	%ebx, %eax
	movl	%eax, -152(%rbp)
	movl	%edi, %eax
	movl	-192(%rbp), %edi
	addl	%edi, %eax
	movl	%eax, -168(%rbp)
	subl	%edi, %eax
	cmpl	%eax, %ebx
	jg	.L463
.LVL1137:
.L459:
	call	GOMP_barrier
.LVL1138:
.LBE7902:
.LBE7901:
.LBE7900:
	.loc 1 392 0
	movq	-56(%rbp), %rax
	xorq	%fs:40, %rax
	jne	.L522
	leaq	-40(%rbp), %rsp
	popq	%rbx
	popq	%r12
	popq	%r13
	popq	%r14
	popq	%r15
	popq	%rbp
	.cfi_remember_state
	.cfi_def_cfa 7, 8
	ret
.LVL1139:
	.p2align 4,,10
	.p2align 3
.L512:
	.cfi_restore_state
.LBB8218:
.LBB7899:
.LBB7898:
.LBB7709:
.LBB7708:
	.loc 1 405 0
	movl	-172(%rbp), %ecx
.LBE7708:
	.loc 1 404 0
	xorl	%r9d, %r9d
	jmp	.L434
.LVL1140:
.L475:
.LBE7709:
.LBE7898:
.LBE7899:
.LBE8218:
.LBB8219:
.LBB8217:
.LBB8216:
.LBB8214:
	.loc 1 585 0
	movq	%rax, %r12
	jmp	.L467
.LVL1141:
.L521:
.LBE8214:
.LBB8215:
	.loc 1 556 0
	movq	%rcx, %rax
	jmp	.L469
.LVL1142:
.L522:
.LBE8215:
.LBE8216:
.LBE8217:
.LBE8219:
	.loc 1 392 0
	call	__stack_chk_fail
.LVL1143:
	.cfi_endproc
.LFE12404:
	.size	_ZN15fastGaussianIIR6apply_IN2cv3VecIhLi3EEENS2_IfLi3EEELi3EEEvRKNS1_3MatERS5_._omp_fn.5, .-_ZN15fastGaussianIIR6apply_IN2cv3VecIhLi3EEENS2_IfLi3EEELi3EEEvRKNS1_3MatERS5_._omp_fn.5
	.section	.text.unlikely._ZN15fastGaussianIIR6apply_IN2cv3VecIhLi3EEENS2_IfLi3EEELi3EEEvRKNS1_3MatERS5_._omp_fn.5,"axG",@progbits,_ZN15fastGaussianIIR6apply_IN2cv3VecIhLi3EEENS2_IfLi3EEELi3EEEvRKNS1_3MatERS5_,comdat
.LCOLDE5:
	.section	.text._ZN15fastGaussianIIR6apply_IN2cv3VecIhLi3EEENS2_IfLi3EEELi3EEEvRKNS1_3MatERS5_._omp_fn.5,"axG",@progbits,_ZN15fastGaussianIIR6apply_IN2cv3VecIhLi3EEENS2_IfLi3EEELi3EEEvRKNS1_3MatERS5_,comdat
.LHOTE5:
	.section	.text.unlikely,"ax",@progbits
.LCOLDB7:
	.text
.LHOTB7:
	.p2align 4,,15
	.type	_ZN15BilateralFilter5applyERKN2cv3MatERS1_._omp_fn.6, @function
_ZN15BilateralFilter5applyERKN2cv3MatERS1_._omp_fn.6:
.LFB12405:
	.loc 1 855 0
	.cfi_startproc
	.cfi_personality 0x3,__gxx_personality_v0
.LVL1144:
	pushq	%r15
	.cfi_def_cfa_offset 16
	.cfi_offset 15, -16
	pushq	%r14
	.cfi_def_cfa_offset 24
	.cfi_offset 14, -24
	pushq	%r13
	.cfi_def_cfa_offset 32
	.cfi_offset 13, -32
	pushq	%r12
	.cfi_def_cfa_offset 40
	.cfi_offset 12, -40
	pushq	%rbp
	.cfi_def_cfa_offset 48
	.cfi_offset 6, -48
	pushq	%rbx
	.cfi_def_cfa_offset 56
	.cfi_offset 3, -56
	subq	$24, %rsp
	.cfi_def_cfa_offset 80
.LBB8220:
	.loc 1 855 0
	movl	32(%rdi), %r14d
.LBE8220:
	movq	8(%rdi), %rbx
.LVL1145:
.LBB8250:
	movq	%rdi, 8(%rsp)
	leal	3(%r14), %eax
	testl	%r14d, %r14d
	cmovns	%r14d, %eax
	sarl	$2, %eax
	movl	%eax, 4(%rsp)
	call	omp_get_num_threads
.LVL1146:
	movl	%eax, %r13d
	call	omp_get_thread_num
.LVL1147:
	movl	4(%rsp), %ecx
	movl	%ecx, %ebp
	imull	%eax, %ebp
	leal	(%rcx,%rbp), %r12d
	cmpl	%r14d, %r12d
	cmovg	%r14d, %r12d
	cmpl	%ebp, %r14d
	jle	.L523
	addl	%r13d, %eax
	movl	%ecx, %r15d
	movq	8(%rsp), %rdi
	imull	%r13d, %r15d
	movl	%eax, %r13d
	addl	$1, %eax
	imull	%ecx, %r13d
	movsd	.LC6(%rip), %xmm1
	movl	36(%rdi), %edx
	imull	%ecx, %eax
	subl	%r13d, %eax
	movl	%eax, 4(%rsp)
	.p2align 4,,10
	.p2align 3
.L526:
.LVL1148:
.LBB8221:
.LBB8222:
	.loc 1 858 0
	movl	%ebp, %r9d
	movq	(%rdi), %rax
.LBB8223:
	.loc 1 861 0
	xorl	%ecx, %ecx
.LBE8223:
	.loc 1 858 0
	imull	%edx, %r9d
.LBB8248:
	.loc 1 861 0
	xorl	%esi, %esi
.LBE8248:
	.loc 1 858 0
	movslq	%r9d, %r9
	movq	%r9, %r8
	addq	16(%rax), %r8
.LVL1149:
	movq	16(%rdi), %rax
	.loc 1 859 0
	movq	%r9, %r10
	addq	16(%rax), %r10
.LVL1150:
	movq	24(%rdi), %rax
	.loc 1 860 0
	addq	16(%rax), %r9
.LVL1151:
.LBB8249:
	.loc 1 861 0
	testl	%edx, %edx
	jle	.L528
.LVL1152:
	.p2align 4,,10
	.p2align 3
.L532:
	movzbl	(%r8,%rcx), %edx
	movzbl	40(%rdi), %eax
	subl	%edx, %eax
	cltd
	xorl	%edx, %eax
	subl	%edx, %eax
	cltq
	leaq	(%rbx,%rax,8), %rdx
.LBB8224:
.LBB8225:
.LBB8226:
.LBB8227:
.LBB8228:
.LBB8229:
.LBB8230:
	.loc 3 63 0 discriminator 2
	movsd	32(%rdx), %xmm0
	mulsd	%xmm1, %xmm0
.LBE8230:
.LBE8229:
.LBB8231:
.LBB8232:
	.loc 3 827 0 discriminator 2
	cvtsd2si	%xmm0, %r11d
.LBE8232:
.LBE8231:
.LBE8228:
.LBE8227:
.LBE8226:
.LBE8225:
.LBB8233:
.LBB8234:
.LBB8235:
.LBB8236:
.LBB8237:
.LBB8238:
	.loc 3 63 0 discriminator 2
	pxor	%xmm0, %xmm0
.LBE8238:
.LBE8237:
.LBE8236:
.LBE8235:
.LBE8234:
.LBE8233:
	.loc 1 864 0 discriminator 2
	testl	%r11d, %r11d
	setg	%al
	negl	%eax
	cmpl	$255, %r11d
	cmovbe	%r11d, %eax
	movb	%al, (%r10,%rcx)
.LBB8246:
.LBB8245:
.LBB8244:
.LBB8243:
.LBB8240:
.LBB8239:
	.loc 3 63 0 discriminator 2
	movzbl	(%r8,%rcx), %eax
	cvtsi2sd	%eax, %xmm0
	mulsd	32(%rdx), %xmm0
.LBE8239:
.LBE8240:
.LBB8241:
.LBB8242:
	.loc 3 827 0 discriminator 2
	cvtsd2si	%xmm0, %edx
.LBE8242:
.LBE8241:
.LBE8243:
.LBE8244:
.LBE8245:
.LBE8246:
	.loc 1 865 0 discriminator 2
	testl	%edx, %edx
	setg	%al
	negl	%eax
	cmpl	$255, %edx
	cmovbe	%edx, %eax
.LBE8224:
	.loc 1 861 0 discriminator 2
	addl	$1, %esi
.LVL1153:
.LBB8247:
	.loc 1 865 0 discriminator 2
	movb	%al, (%r9,%rcx)
.LBE8247:
	.loc 1 861 0 discriminator 2
	movl	36(%rdi), %edx
	addq	$1, %rcx
.LVL1154:
	cmpl	%esi, %edx
	jg	.L532
.LVL1155:
.L528:
	addl	$1, %ebp
.LVL1156:
	cmpl	%r12d, %ebp
	jl	.L526
	movl	4(%rsp), %eax
	movl	%r13d, %ebp
.LVL1157:
	leal	0(%r13,%rax), %r12d
	cmpl	%r14d, %r12d
	cmovg	%r14d, %r12d
	addl	%r15d, %r13d
	movl	%r13d, %eax
	subl	%r15d, %eax
	cmpl	%eax, %r14d
	jg	.L526
.LVL1158:
.L523:
.LBE8249:
.LBE8222:
.LBE8221:
.LBE8250:
	.loc 1 855 0
	addq	$24, %rsp
	.cfi_def_cfa_offset 56
	popq	%rbx
	.cfi_def_cfa_offset 48
.LVL1159:
	popq	%rbp
	.cfi_def_cfa_offset 40
	popq	%r12
	.cfi_def_cfa_offset 32
	popq	%r13
	.cfi_def_cfa_offset 24
	popq	%r14
	.cfi_def_cfa_offset 16
	popq	%r15
	.cfi_def_cfa_offset 8
	ret
	.cfi_endproc
.LFE12405:
	.size	_ZN15BilateralFilter5applyERKN2cv3MatERS1_._omp_fn.6, .-_ZN15BilateralFilter5applyERKN2cv3MatERS1_._omp_fn.6
	.section	.text.unlikely
.LCOLDE7:
	.text
.LHOTE7:
	.section	.text.unlikely
.LCOLDB8:
	.text
.LHOTB8:
	.p2align 4,,15
	.type	_ZN15BilateralFilter5applyERKN2cv3MatERS1_._omp_fn.7, @function
_ZN15BilateralFilter5applyERKN2cv3MatERS1_._omp_fn.7:
.LFB12406:
	.loc 1 873 0
	.cfi_startproc
	.cfi_personality 0x3,__gxx_personality_v0
.LVL1160:
	pushq	%r15
	.cfi_def_cfa_offset 16
	.cfi_offset 15, -16
	pushq	%r14
	.cfi_def_cfa_offset 24
	.cfi_offset 14, -24
	movq	%rdi, %r15
	pushq	%r13
	.cfi_def_cfa_offset 32
	.cfi_offset 13, -32
	pushq	%r12
	.cfi_def_cfa_offset 40
	.cfi_offset 12, -40
	pushq	%rbp
	.cfi_def_cfa_offset 48
	.cfi_offset 6, -48
	pushq	%rbx
	.cfi_def_cfa_offset 56
	.cfi_offset 3, -56
	subq	$8, %rsp
	.cfi_def_cfa_offset 64
.LBB8251:
	.loc 1 873 0
	movl	24(%rdi), %ebp
	leal	3(%rbp), %r12d
	testl	%ebp, %ebp
	cmovns	%ebp, %r12d
	sarl	$2, %r12d
	call	omp_get_num_threads
.LVL1161:
	movl	%eax, %ebx
	call	omp_get_thread_num
.LVL1162:
	movl	%r12d, %r10d
	imull	%eax, %r10d
	leal	(%r12,%r10), %r11d
	cmpl	%ebp, %r11d
	cmovg	%ebp, %r11d
	cmpl	%r10d, %ebp
	jle	.L535
	movl	%r12d, %r13d
	addl	%ebx, %eax
	movl	28(%r15), %r14d
	imull	%ebx, %r13d
	movl	%eax, %ebx
	addl	$1, %eax
	imull	%r12d, %ebx
	movsd	.LC6(%rip), %xmm2
	imull	%eax, %r12d
	subl	%ebx, %r12d
	.p2align 4,,10
	.p2align 3
.L538:
.LVL1163:
.LBB8252:
.LBB8253:
	.loc 1 876 0
	movl	%r10d, %esi
	movq	(%r15), %rax
	movq	16(%r15), %rdx
	imull	%r14d, %esi
.LBB8254:
	.loc 1 879 0
	xorl	%ecx, %ecx
.LBE8254:
	.loc 1 876 0
	movslq	%esi, %rsi
	movq	%rsi, %r9
	addq	16(%rax), %r9
.LVL1164:
	movq	8(%r15), %rax
	.loc 1 877 0
	movq	%rsi, %r8
	addq	16(%rax), %r8
.LVL1165:
	movslq	32(%r15), %rax
	leaq	(%rax,%rax,2), %rax
	salq	$5, %rax
	addq	(%rdx), %rax
.LBB8263:
	.loc 1 879 0
	xorl	%edx, %edx
.LVL1166:
.LBE8263:
	.loc 1 878 0
	addq	16(%rax), %rsi
.LVL1167:
.LBB8264:
	.loc 1 879 0
	testl	%r14d, %r14d
	jle	.L540
.LVL1168:
	.p2align 4,,10
	.p2align 3
.L544:
.LBB8255:
.LBB8256:
.LBB8257:
.LBB8258:
.LBB8259:
.LBB8260:
	.loc 3 63 0 discriminator 2
	movzbl	(%r8,%rdx), %eax
	pxor	%xmm0, %xmm0
	pxor	%xmm1, %xmm1
	cvtsi2sd	%eax, %xmm0
	movzbl	(%r9,%rdx), %eax
	cvtsi2sd	%eax, %xmm1
	mulsd	%xmm2, %xmm0
	divsd	%xmm1, %xmm0
.LBE8260:
.LBE8259:
.LBB8261:
.LBB8262:
	.loc 3 827 0 discriminator 2
	cvtsd2si	%xmm0, %eax
.LBE8262:
.LBE8261:
.LBE8258:
.LBE8257:
.LBE8256:
.LBE8255:
	.loc 1 880 0 discriminator 2
	testl	%eax, %eax
	setg	%r14b
	negl	%r14d
	cmpl	$255, %eax
	cmova	%r14d, %eax
	.loc 1 879 0 discriminator 2
	addl	$1, %ecx
.LVL1169:
	.loc 1 880 0 discriminator 2
	movb	%al, (%rsi,%rdx)
	.loc 1 879 0 discriminator 2
	movl	28(%r15), %r14d
	addq	$1, %rdx
.LVL1170:
	cmpl	%ecx, %r14d
	jg	.L544
.LVL1171:
.L540:
	addl	$1, %r10d
.LVL1172:
	cmpl	%r11d, %r10d
	jl	.L538
	leal	(%rbx,%r12), %r11d
	movl	%ebx, %r10d
.LVL1173:
	cmpl	%ebp, %r11d
	cmovg	%ebp, %r11d
	addl	%r13d, %ebx
	movl	%ebx, %eax
	subl	%r13d, %eax
	cmpl	%eax, %ebp
	jg	.L538
.L535:
.LBE8264:
.LBE8253:
.LBE8252:
.LBE8251:
	.loc 1 873 0
	addq	$8, %rsp
	.cfi_def_cfa_offset 56
	popq	%rbx
	.cfi_def_cfa_offset 48
	popq	%rbp
	.cfi_def_cfa_offset 40
	popq	%r12
	.cfi_def_cfa_offset 32
	popq	%r13
	.cfi_def_cfa_offset 24
	popq	%r14
	.cfi_def_cfa_offset 16
	popq	%r15
	.cfi_def_cfa_offset 8
.LVL1174:
	ret
	.cfi_endproc
.LFE12406:
	.size	_ZN15BilateralFilter5applyERKN2cv3MatERS1_._omp_fn.7, .-_ZN15BilateralFilter5applyERKN2cv3MatERS1_._omp_fn.7
	.section	.text.unlikely
.LCOLDE8:
	.text
.LHOTE8:
	.section	.rodata.str1.8,"aMS",@progbits,1
	.align 8
.LC9:
	.string	"ERROR: lapack routine LAPACKE_zgetrf() for solving a of simga = %f failed!\n"
	.section	.text.unlikely
	.align 2
.LCOLDB10:
.LHOTB10:
	.align 2
	.type	_ZN15fastGaussianIIR16getCoefficients_EdPfS0_S0_.part.37, @function
_ZN15fastGaussianIIR16getCoefficients_EdPfS0_S0_.part.37:
.LFB12436:
	.loc 1 624 0
	.cfi_startproc
.LVL1175:
	pushq	%rax
	.cfi_def_cfa_offset 16
.LBB8265:
.LBB8266:
	.file 8 "/usr/include/x86_64-linux-gnu/bits/stdio2.h"
	.loc 8 98 0
	movq	stderr(%rip), %rdi
	movl	$.LC9, %edx
	movl	$1, %esi
	movb	$1, %al
	call	__fprintf_chk
.LVL1176:
.LBE8266:
.LBE8265:
	.loc 1 657 0
	orl	$-1, %edi
	call	exit
.LVL1177:
	.cfi_endproc
.LFE12436:
	.size	_ZN15fastGaussianIIR16getCoefficients_EdPfS0_S0_.part.37, .-_ZN15fastGaussianIIR16getCoefficients_EdPfS0_S0_.part.37
.LCOLDE10:
.LHOTE10:
	.section	.rodata.str1.8
	.align 8
.LC11:
	.string	"basic_string::_M_construct null not valid"
	.section	.text.unlikely
	.align 2
.LCOLDB12:
	.text
.LHOTB12:
	.align 2
	.p2align 4,,15
	.type	_ZNSt7__cxx1112basic_stringIcSt11char_traitsIcESaIcEEC2EPKcRKS3_.isra.64, @function
_ZNSt7__cxx1112basic_stringIcSt11char_traitsIcESaIcEEC2EPKcRKS3_.isra.64:
.LFB12463:
	.file 9 "/usr/include/c++/5/bits/basic_string.h"
	.loc 9 454 0
	.cfi_startproc
.LVL1178:
	pushq	%r13
	.cfi_def_cfa_offset 16
	.cfi_offset 13, -16
	pushq	%r12
	.cfi_def_cfa_offset 24
	.cfi_offset 12, -24
.LBB8305:
.LBB8306:
.LBB8307:
	.loc 9 141 0
	leaq	16(%rdi), %r13
.LBE8307:
.LBE8306:
.LBE8305:
	.loc 9 454 0
	pushq	%rbp
	.cfi_def_cfa_offset 32
	.cfi_offset 6, -32
	pushq	%rbx
	.cfi_def_cfa_offset 40
	.cfi_offset 3, -40
	subq	$24, %rsp
	.cfi_def_cfa_offset 64
.LBB8361:
.LBB8308:
.LBB8309:
	.loc 9 109 0
	movq	%r13, (%rdi)
.LBE8309:
.LBE8308:
.LBE8361:
	.loc 9 454 0
	movq	%fs:40, %rax
	movq	%rax, 8(%rsp)
	xorl	%eax, %eax
.LVL1179:
.LBB8362:
	.loc 9 456 0
	testq	%rsi, %rsi
	je	.L549
	movq	%rdi, %rbx
.LBB8310:
.LBB8311:
	.file 10 "/usr/include/c++/5/bits/char_traits.h"
	.loc 10 267 0
	movq	%rsi, %rdi
.LVL1180:
	movq	%rsi, %r12
.LVL1181:
	call	strlen
.LVL1182:
.LBE8311:
.LBE8310:
.LBB8313:
.LBB8314:
.LBB8315:
.LBB8316:
.LBB8317:
.LBB8318:
	.file 11 "/usr/include/c++/5/bits/basic_string.tcc"
	.loc 11 221 0
	cmpq	$15, %rax
.LBE8318:
.LBE8317:
.LBE8316:
.LBE8315:
.LBE8314:
.LBE8313:
.LBB8358:
.LBB8312:
	.loc 10 267 0
	movq	%rax, %rbp
.LVL1183:
.LBE8312:
.LBE8358:
.LBB8359:
.LBB8356:
.LBB8354:
.LBB8352:
.LBB8350:
.LBB8348:
	.loc 11 219 0
	movq	%rax, (%rsp)
	.loc 11 221 0
	ja	.L561
.LVL1184:
.LBB8319:
.LBB8320:
.LBB8321:
	.loc 9 296 0
	cmpq	$1, %rax
	je	.L562
.LVL1185:
.LBB8322:
.LBB8323:
	.loc 10 288 0
	testq	%rax, %rax
	jne	.L563
.LVL1186:
.L553:
.LBE8323:
.LBE8322:
.LBE8321:
.LBE8320:
.LBE8319:
	.loc 11 236 0
	movq	(%rsp), %rax
.LVL1187:
.LBB8334:
.LBB8335:
.LBB8336:
.LBB8337:
	.loc 10 243 0
	movq	(%rbx), %rdx
.LBE8337:
.LBE8336:
.LBB8339:
.LBB8340:
	.loc 9 131 0
	movq	%rax, 8(%rbx)
.LVL1188:
.LBE8340:
.LBE8339:
.LBB8341:
.LBB8338:
	.loc 10 243 0
	movb	$0, (%rdx,%rax)
.LVL1189:
.LBE8338:
.LBE8341:
.LBE8335:
.LBE8334:
.LBE8348:
.LBE8350:
.LBE8352:
.LBE8354:
.LBE8356:
.LBE8359:
.LBE8362:
	.loc 9 456 0
	movq	8(%rsp), %rax
	xorq	%fs:40, %rax
	jne	.L564
	addq	$24, %rsp
	.cfi_remember_state
	.cfi_def_cfa_offset 40
	popq	%rbx
	.cfi_def_cfa_offset 32
.LVL1190:
	popq	%rbp
	.cfi_def_cfa_offset 24
	popq	%r12
	.cfi_def_cfa_offset 16
.LVL1191:
	popq	%r13
	.cfi_def_cfa_offset 8
.LVL1192:
	ret
.LVL1193:
.L561:
	.cfi_restore_state
.LBB8363:
.LBB8360:
.LBB8357:
.LBB8355:
.LBB8353:
.LBB8351:
.LBB8349:
	.loc 11 223 0
	movq	%rbx, %rdi
	xorl	%edx, %edx
	movq	%rsp, %rsi
	call	_ZNSt7__cxx1112basic_stringIcSt11char_traitsIcESaIcEE9_M_createERmm
.LVL1194:
	movq	%rax, %rdi
.LVL1195:
.LBB8342:
.LBB8343:
	.loc 9 127 0
	movq	%rax, (%rbx)
.LVL1196:
.LBE8343:
.LBE8342:
.LBB8344:
.LBB8345:
	.loc 9 159 0
	movq	(%rsp), %rax
	movq	%rax, 16(%rbx)
.LVL1197:
.L551:
.LBE8345:
.LBE8344:
.LBB8346:
.LBB8332:
.LBB8330:
.LBB8326:
.LBB8324:
	.loc 10 290 0
	movq	%rbp, %rdx
	movq	%r12, %rsi
	call	memcpy
.LVL1198:
	jmp	.L553
.LVL1199:
.L562:
	movzbl	(%r12), %eax
.LVL1200:
.LBE8324:
.LBE8326:
.LBB8327:
.LBB8328:
	.loc 10 243 0
	movb	%al, 16(%rbx)
	jmp	.L553
.LVL1201:
.L549:
.LBE8328:
.LBE8327:
.LBE8330:
.LBE8332:
.LBE8346:
	.loc 11 216 0
	movl	$.LC11, %edi
.LVL1202:
	call	_ZSt19__throw_logic_errorPKc
.LVL1203:
.L563:
.LBB8347:
.LBB8333:
.LBB8331:
.LBB8329:
.LBB8325:
	.loc 10 288 0
	movq	%r13, %rdi
	jmp	.L551
.LVL1204:
.L564:
.LBE8325:
.LBE8329:
.LBE8331:
.LBE8333:
.LBE8347:
.LBE8349:
.LBE8351:
.LBE8353:
.LBE8355:
.LBE8357:
.LBE8360:
.LBE8363:
	.loc 9 456 0
	call	__stack_chk_fail
.LVL1205:
	.cfi_endproc
.LFE12463:
	.size	_ZNSt7__cxx1112basic_stringIcSt11char_traitsIcESaIcEEC2EPKcRKS3_.isra.64, .-_ZNSt7__cxx1112basic_stringIcSt11char_traitsIcESaIcEEC2EPKcRKS3_.isra.64
	.section	.text.unlikely
.LCOLDE12:
	.text
.LHOTE12:
	.section	.rodata.str1.1,"aMS",@progbits,1
.LC13:
	.string	"\n"
	.section	.text.unlikely
.LCOLDB14:
	.text
.LHOTB14:
	.p2align 4,,15
	.type	_ZStlsISt11char_traitsIcEERSt13basic_ostreamIcT_ES5_PKc.constprop.80, @function
_ZStlsISt11char_traitsIcEERSt13basic_ostreamIcT_ES5_PKc.constprop.80:
.LFB12480:
	.file 12 "/usr/include/c++/5/ostream"
	.loc 12 556 0
	.cfi_startproc
.LVL1206:
	pushq	%rbx
	.cfi_def_cfa_offset 16
	.cfi_offset 3, -16
	.loc 12 561 0
	movl	$1, %edx
	.loc 12 556 0
	movq	%rdi, %rbx
	.loc 12 561 0
	movl	$.LC13, %esi
	call	_ZSt16__ostream_insertIcSt11char_traitsIcEERSt13basic_ostreamIT_T0_ES6_PKS3_l
.LVL1207:
	.loc 12 564 0
	movq	%rbx, %rax
	popq	%rbx
	.cfi_def_cfa_offset 8
.LVL1208:
	ret
	.cfi_endproc
.LFE12480:
	.size	_ZStlsISt11char_traitsIcEERSt13basic_ostreamIcT_ES5_PKc.constprop.80, .-_ZStlsISt11char_traitsIcEERSt13basic_ostreamIcT_ES5_PKc.constprop.80
	.section	.text.unlikely
.LCOLDE14:
	.text
.LHOTE14:
	.section	.rodata.str1.1
.LC17:
	.string	"\t"
	.section	.text.unlikely
.LCOLDB18:
	.text
.LHOTB18:
	.p2align 4,,15
	.type	_ZN15BilateralFilter5applyERKN2cv3MatERS1_._omp_fn.8, @function
_ZN15BilateralFilter5applyERKN2cv3MatERS1_._omp_fn.8:
.LFB12407:
	.loc 1 885 0
	.cfi_startproc
	.cfi_personality 0x3,__gxx_personality_v0
	.cfi_lsda 0x3,.LLSDA12407
.LVL1209:
	pushq	%r15
	.cfi_def_cfa_offset 16
	.cfi_offset 15, -16
	pushq	%r14
	.cfi_def_cfa_offset 24
	.cfi_offset 14, -24
	pushq	%r13
	.cfi_def_cfa_offset 32
	.cfi_offset 13, -32
	pushq	%r12
	.cfi_def_cfa_offset 40
	.cfi_offset 12, -40
	movq	%rdi, %r13
	pushq	%rbp
	.cfi_def_cfa_offset 48
	.cfi_offset 6, -48
	pushq	%rbx
	.cfi_def_cfa_offset 56
	.cfi_offset 3, -56
	subq	$88, %rsp
	.cfi_def_cfa_offset 144
.LBB8405:
	.loc 1 885 0
	movl	36(%rdi), %eax
.LBE8405:
	movq	16(%rdi), %r14
.LVL1210:
.LBB8458:
	movl	%eax, %r12d
	movl	%eax, 68(%rsp)
	addl	$3, %eax
	testl	%r12d, %r12d
	cmovns	%r12d, %eax
	sarl	$2, %eax
	movl	%eax, %ebx
	movl	%ebx, %r15d
	call	omp_get_num_threads
.LVL1211:
	movl	%eax, %ebp
	call	omp_get_thread_num
.LVL1212:
	imull	%eax, %r15d
	leal	(%rbx,%r15), %edx
	cmpl	%r12d, %edx
	cmovg	%r12d, %edx
	cmpl	%r15d, %r12d
	movl	%edx, 60(%rsp)
	jle	.L567
	movl	%ebx, %edi
	addl	%ebp, %eax
	movl	40(%r13), %edx
	imull	%ebp, %edi
	pxor	%xmm3, %xmm3
	movsd	.LC15(%rip), %xmm4
	movq	%r14, %r8
	movl	%edi, 72(%rsp)
	movl	%eax, %edi
	addl	$1, %eax
	imull	%ebx, %edi
	imull	%ebx, %eax
	movl	%edi, 64(%rsp)
	subl	%edi, %eax
	movl	%eax, 76(%rsp)
.LVL1213:
	.p2align 4,,10
	.p2align 3
.L570:
.LBB8406:
.LBB8407:
	.loc 1 888 0
	movl	%r15d, %r14d
	movq	0(%r13), %rax
.LBB8408:
	.loc 1 890 0
	xorl	%r12d, %r12d
.LBE8408:
	.loc 1 888 0
	imull	%edx, %r14d
	movslq	%r14d, %r14
	movq	%r14, %rcx
	addq	16(%rax), %rcx
.LVL1214:
	movq	8(%r13), %rax
	.loc 1 889 0
	addq	16(%rax), %r14
.LVL1215:
.LBB8457:
	.loc 1 890 0
	testl	%edx, %edx
	jle	.L579
	movq	%r14, %rax
	movq	%r8, %r14
.LVL1216:
	movq	%rax, %r8
.LVL1217:
	jmp	.L585
.LVL1218:
	.p2align 4,,10
	.p2align 3
.L581:
	movq	24(%r13), %rax
	movslq	%ebx, %rbx
	movslq	%ebp, %rbp
	leaq	(%rbx,%rbx,2), %rdx
.LBB8409:
.LBB8410:
.LBB8411:
.LBB8412:
.LBB8413:
.LBB8414:
.LBB8415:
	.loc 3 63 0 discriminator 2
	pxor	%xmm0, %xmm0
	movq	(%rax), %rsi
.LVL1219:
.LBE8415:
.LBE8414:
.LBE8413:
.LBE8412:
.LBE8411:
.LBE8410:
	.loc 1 899 0 discriminator 2
	movl	40(%r13), %eax
.LVL1220:
	salq	$5, %rdx
	imull	%r15d, %eax
	movq	16(%rsi,%rdx), %rdx
	cltq
	addq	%r12, %rax
.LVL1221:
.LBB8430:
.LBB8428:
.LBB8424:
.LBB8422:
.LBB8418:
.LBB8416:
	.loc 3 63 0 discriminator 2
	movzbl	(%rdx,%rax), %edx
	cvtsi2sd	%edx, %xmm0
	leaq	0(%rbp,%rbp,2), %rdx
	salq	$5, %rdx
.LBE8416:
.LBE8418:
.LBE8422:
.LBE8424:
.LBE8428:
.LBE8430:
	.loc 1 900 0 discriminator 2
	movq	16(%rsi,%rdx), %rdx
.LBB8431:
.LBB8429:
.LBB8425:
.LBB8423:
.LBB8419:
.LBB8417:
	.loc 3 63 0 discriminator 2
	movzbl	(%rdx,%rax), %eax
	mulsd	%xmm0, %xmm2
	pxor	%xmm0, %xmm0
	cvtsi2sd	%eax, %xmm0
	mulsd	%xmm0, %xmm1
	addsd	%xmm2, %xmm1
.LBE8417:
.LBE8419:
.LBB8420:
.LBB8421:
	.loc 3 827 0 discriminator 2
	cvtsd2si	%xmm1, %eax
.LVL1222:
.LBE8421:
.LBE8420:
.LBE8423:
.LBE8425:
.LBB8426:
.LBB8427:
	.file 13 "/home/xiaocen/Software/opencv/include/opencv2/core/operations.hpp"
	.loc 13 132 0 discriminator 2
	cmpl	$255, %eax
	movl	%eax, %edx
	jbe	.L578
	.loc 13 132 0 is_stmt 0
	testl	%eax, %eax
	setg	%dl
	negl	%edx
.L578:
.LVL1223:
.LBE8427:
.LBE8426:
.LBE8429:
.LBE8431:
	.loc 1 901 0 is_stmt 1
	movb	%dl, (%r8,%r12)
.LVL1224:
.LBE8409:
	.loc 1 890 0
	movl	40(%r13), %edx
	leal	1(%r12), %eax
.LVL1225:
	addq	$1, %r12
.LVL1226:
	cmpl	%eax, %edx
	jle	.L589
.LVL1227:
.L585:
.LBB8456:
	.loc 1 891 0
	movzbl	(%rcx,%r12), %eax
	pxor	%xmm1, %xmm1
	movsd	(%r14), %xmm2
	cvtsi2sd	%eax, %xmm1
	.loc 1 892 0
	movl	32(%r13), %eax
	subl	$1, %eax
	.loc 1 891 0
	movapd	%xmm1, %xmm0
	divsd	%xmm2, %xmm0
	cvttsd2si	%xmm0, %ebx
.LVL1228:
.LBB8432:
.LBB8433:
.LBB8434:
.LBB8435:
.LBB8436:
.LBB8437:
	.loc 3 63 0
	pxor	%xmm0, %xmm0
	cvtsi2sd	%ebx, %xmm0
.LBE8437:
.LBE8436:
.LBE8435:
.LBE8434:
.LBE8433:
.LBE8432:
	leal	1(%rbx), %ebp
	cmpl	%eax, %ebx
	cmovge	%ebx, %ebp
.LVL1229:
.LBB8447:
.LBB8446:
.LBB8443:
.LBB8442:
.LBB8439:
.LBB8438:
	mulsd	%xmm2, %xmm0
.LBE8438:
.LBE8439:
.LBB8440:
.LBB8441:
	.loc 3 827 0
	cvtsd2si	%xmm0, %edx
.LVL1230:
.LBE8441:
.LBE8440:
.LBE8442:
.LBE8443:
.LBB8444:
.LBB8445:
	.loc 13 132 0
	cmpl	$255, %edx
	movl	%edx, %eax
	jbe	.L574
	testl	%edx, %edx
	setg	%al
	negl	%eax
.L574:
.LVL1231:
.LBE8445:
.LBE8444:
.LBE8446:
.LBE8447:
	.loc 1 896 0
	pxor	%xmm0, %xmm0
	movzbl	%al, %eax
	cvtsi2sd	%eax, %xmm0
	subsd	%xmm0, %xmm1
	divsd	%xmm2, %xmm1
.LVL1232:
	.loc 1 897 0
	movapd	%xmm4, %xmm2
	subsd	%xmm1, %xmm2
.LVL1233:
	.loc 1 898 0
	ucomisd	%xmm2, %xmm3
	ja	.L575
	.loc 1 898 0 is_stmt 0 discriminator 2
	ucomisd	%xmm1, %xmm3
	jbe	.L581
.L575:
.LBB8448:
.LBB8449:
	.loc 12 221 0 is_stmt 1
	movapd	%xmm2, %xmm0
	movl	$_ZSt4cout, %edi
	movq	%r8, 48(%rsp)
	movq	%rcx, 40(%rsp)
	movsd	%xmm3, 32(%rsp)
	movsd	%xmm4, 24(%rsp)
	movsd	%xmm2, 16(%rsp)
	movsd	%xmm1, (%rsp)
.LVL1234:
	call	_ZNSo9_M_insertIdEERSoT_
.LVL1235:
.LBE8449:
.LBE8448:
.LBB8450:
.LBB8451:
	.loc 12 561 0
	movl	$1, %edx
	movl	$.LC17, %esi
	movq	%rax, %rdi
	movq	%rax, 8(%rsp)
	call	_ZSt16__ostream_insertIcSt11char_traitsIcEERSt13basic_ostreamIT_T0_ES6_PKS3_l
.LVL1236:
.LBE8451:
.LBE8450:
.LBB8452:
.LBB8453:
	.loc 12 221 0
	movsd	(%rsp), %xmm1
	movq	8(%rsp), %r9
	movapd	%xmm1, %xmm0
	movq	%r9, %rdi
	call	_ZNSo9_M_insertIdEERSoT_
.LVL1237:
.LBE8453:
.LBE8452:
.LBB8454:
.LBB8455:
	.loc 12 561 0
	movl	$1, %edx
	movl	$.LC13, %esi
	movq	%rax, %rdi
	call	_ZSt16__ostream_insertIcSt11char_traitsIcEERSt13basic_ostreamIT_T0_ES6_PKS3_l
.LVL1238:
	movsd	(%rsp), %xmm1
	movq	40(%rsp), %rcx
	movsd	16(%rsp), %xmm2
	movq	48(%rsp), %r8
	movsd	24(%rsp), %xmm4
	movsd	32(%rsp), %xmm3
	jmp	.L581
.LVL1239:
	.p2align 4,,10
	.p2align 3
.L589:
	movq	%r14, %r8
.LVL1240:
.L579:
	addl	$1, %r15d
.LVL1241:
	cmpl	60(%rsp), %r15d
	jl	.L570
	movl	64(%rsp), %edi
	movl	76(%rsp), %eax
	movl	68(%rsp), %ecx
	addl	%edi, %eax
	movl	%edi, %r15d
.LVL1242:
	cmpl	%ecx, %eax
	cmovg	%ecx, %eax
	movl	%eax, 60(%rsp)
	movl	%edi, %eax
	movl	72(%rsp), %edi
	addl	%edi, %eax
	movl	%eax, 64(%rsp)
	subl	%edi, %eax
	cmpl	%eax, %ecx
	jg	.L570
.LVL1243:
.L567:
.LBE8455:
.LBE8454:
.LBE8456:
.LBE8457:
.LBE8407:
.LBE8406:
.LBE8458:
	.loc 1 885 0
	addq	$88, %rsp
	.cfi_def_cfa_offset 56
	popq	%rbx
	.cfi_def_cfa_offset 48
	popq	%rbp
	.cfi_def_cfa_offset 40
	popq	%r12
	.cfi_def_cfa_offset 32
	popq	%r13
	.cfi_def_cfa_offset 24
.LVL1244:
	popq	%r14
	.cfi_def_cfa_offset 16
	popq	%r15
	.cfi_def_cfa_offset 8
	ret
	.cfi_endproc
.LFE12407:
	.globl	__gxx_personality_v0
	.section	.gcc_except_table,"a",@progbits
.LLSDA12407:
	.byte	0xff
	.byte	0xff
	.byte	0x1
	.uleb128 .LLSDACSE12407-.LLSDACSB12407
.LLSDACSB12407:
.LLSDACSE12407:
	.text
	.size	_ZN15BilateralFilter5applyERKN2cv3MatERS1_._omp_fn.8, .-_ZN15BilateralFilter5applyERKN2cv3MatERS1_._omp_fn.8
	.section	.text.unlikely
.LCOLDE18:
	.text
.LHOTE18:
	.section	.text.unlikely._ZN2cv3MatC2ENS_5Size_IiEEi,"axG",@progbits,_ZN2cv3MatC5ENS_5Size_IiEEi,comdat
	.align 2
.LCOLDB19:
	.section	.text._ZN2cv3MatC2ENS_5Size_IiEEi,"axG",@progbits,_ZN2cv3MatC5ENS_5Size_IiEEi,comdat
.LHOTB19:
	.align 2
	.p2align 4,,15
	.weak	_ZN2cv3MatC2ENS_5Size_IiEEi
	.type	_ZN2cv3MatC2ENS_5Size_IiEEi, @function
_ZN2cv3MatC2ENS_5Size_IiEEi:
.LFB9420:
	.loc 2 85 0
	.cfi_startproc
.LVL1245:
	subq	$24, %rsp
	.cfi_def_cfa_offset 32
.LBB8477:
.LBB8478:
.LBB8479:
	.loc 2 352 0
	movl	4(%rsi), %ecx
	.loc 2 353 0
	andl	$4095, %edx
.LVL1246:
.LBE8479:
.LBE8478:
.LBE8477:
	.loc 2 85 0
	movq	%fs:40, %rax
	movq	%rax, 8(%rsp)
	xorl	%eax, %eax
.LVL1247:
.LBB8502:
	leaq	8(%rdi), %rax
.LVL1248:
.LBB8485:
.LBB8486:
	.loc 2 738 0
	movq	$0, 88(%rdi)
	movq	$0, 80(%rdi)
.LBE8486:
.LBE8485:
.LBB8489:
.LBB8480:
	.loc 2 352 0
	movl	%ecx, (%rsp)
.LBE8480:
.LBE8489:
.LBB8490:
.LBB8491:
	.loc 2 60 0
	movl	$1124007936, (%rdi)
.LBE8491:
.LBE8490:
.LBB8494:
.LBB8481:
	.loc 2 353 0
	movl	%edx, %ecx
.LBE8481:
.LBE8494:
	.loc 2 85 0
	movq	%rax, 64(%rdi)
.LVL1249:
.LBB8495:
.LBB8487:
	.loc 2 738 0
	leaq	80(%rdi), %rax
.LBE8487:
.LBE8495:
.LBB8496:
.LBB8492:
	.loc 2 61 0
	movl	$0, 12(%rdi)
	movl	$0, 8(%rdi)
	movl	$0, 4(%rdi)
.LBE8492:
.LBE8496:
.LBB8497:
.LBB8482:
	.loc 2 353 0
	movq	%rsp, %rdx
.LBE8482:
.LBE8497:
.LBB8498:
.LBB8488:
	.loc 2 738 0
	movq	%rax, 72(%rdi)
.LBE8488:
.LBE8498:
	.loc 2 88 0
	movl	(%rsi), %eax
.LBB8499:
.LBB8483:
	.loc 2 353 0
	movl	$2, %esi
.LVL1250:
.LBE8483:
.LBE8499:
.LBB8500:
.LBB8493:
	.loc 2 62 0
	movq	$0, 48(%rdi)
	movq	$0, 40(%rdi)
	movq	$0, 32(%rdi)
	movq	$0, 16(%rdi)
	.loc 2 63 0
	movq	$0, 24(%rdi)
	.loc 2 64 0
	movq	$0, 56(%rdi)
.LVL1251:
.LBE8493:
.LBE8500:
.LBB8501:
.LBB8484:
	.loc 2 352 0
	movl	%eax, 4(%rsp)
	.loc 2 353 0
	call	_ZN2cv3Mat6createEiPKii
.LVL1252:
.LBE8484:
.LBE8501:
.LBE8502:
	.loc 2 89 0
	movq	8(%rsp), %rax
	xorq	%fs:40, %rax
	jne	.L593
	addq	$24, %rsp
	.cfi_remember_state
	.cfi_def_cfa_offset 8
	ret
.L593:
	.cfi_restore_state
	call	__stack_chk_fail
.LVL1253:
	.cfi_endproc
.LFE9420:
	.size	_ZN2cv3MatC2ENS_5Size_IiEEi, .-_ZN2cv3MatC2ENS_5Size_IiEEi
	.section	.text.unlikely._ZN2cv3MatC2ENS_5Size_IiEEi,"axG",@progbits,_ZN2cv3MatC5ENS_5Size_IiEEi,comdat
.LCOLDE19:
	.section	.text._ZN2cv3MatC2ENS_5Size_IiEEi,"axG",@progbits,_ZN2cv3MatC5ENS_5Size_IiEEi,comdat
.LHOTE19:
	.weak	_ZN2cv3MatC1ENS_5Size_IiEEi
	.set	_ZN2cv3MatC1ENS_5Size_IiEEi,_ZN2cv3MatC2ENS_5Size_IiEEi
	.section	.text.unlikely._ZN2cv3MatD2Ev,"axG",@progbits,_ZN2cv3MatD5Ev,comdat
	.align 2
.LCOLDB20:
	.section	.text._ZN2cv3MatD2Ev,"axG",@progbits,_ZN2cv3MatD5Ev,comdat
.LHOTB20:
	.align 2
	.p2align 4,,15
	.weak	_ZN2cv3MatD2Ev
	.type	_ZN2cv3MatD2Ev, @function
_ZN2cv3MatD2Ev:
.LFB9447:
	.loc 2 274 0
	.cfi_startproc
	.cfi_personality 0x3,__gxx_personality_v0
	.cfi_lsda 0x3,.LLSDA9447
.LVL1254:
	pushq	%rbx
	.cfi_def_cfa_offset 16
	.cfi_offset 3, -16
.LBB8508:
.LBB8509:
.LBB8510:
	.loc 2 366 0
	movq	24(%rdi), %rax
.LBE8510:
.LBE8509:
.LBE8508:
	.loc 2 274 0
	movq	%rdi, %rbx
.LBB8517:
.LBB8515:
.LBB8513:
	.loc 2 366 0
	testq	%rax, %rax
	je	.L602
	lock subl	$1, (%rax)
	jne	.L602
	.loc 2 367 0
	call	_ZN2cv3Mat10deallocateEv
.LVL1255:
.L602:
.LBB8511:
	.loc 2 369 0
	movl	4(%rbx), %eax
.LBE8511:
	.loc 2 368 0
	movq	$0, 48(%rbx)
	movq	$0, 40(%rbx)
	movq	$0, 32(%rbx)
	movq	$0, 16(%rbx)
.LVL1256:
.LBB8512:
	.loc 2 369 0
	testl	%eax, %eax
	jle	.L600
	movq	64(%rbx), %rdx
	xorl	%eax, %eax
.LVL1257:
	.p2align 4,,10
	.p2align 3
.L601:
	.loc 2 370 0
	movl	$0, (%rdx)
	.loc 2 369 0
	addl	$1, %eax
.LVL1258:
	addq	$4, %rdx
	cmpl	%eax, 4(%rbx)
	jg	.L601
.LVL1259:
.L600:
.LBE8512:
.LBE8513:
.LBE8515:
	.loc 2 277 0
	movq	72(%rbx), %rdi
.LBB8516:
.LBB8514:
	.loc 2 371 0
	movq	$0, 24(%rbx)
.LVL1260:
.LBE8514:
.LBE8516:
	.loc 2 277 0
	addq	$80, %rbx
.LVL1261:
	cmpq	%rbx, %rdi
	je	.L609
.LBE8517:
	.loc 2 279 0
	popq	%rbx
	.cfi_remember_state
	.cfi_def_cfa_offset 8
.LVL1262:
.LBB8518:
	.loc 2 278 0
	jmp	_ZN2cv8fastFreeEPv
.LVL1263:
	.p2align 4,,10
	.p2align 3
.L609:
	.cfi_restore_state
.LBE8518:
	.loc 2 279 0
	popq	%rbx
	.cfi_def_cfa_offset 8
	ret
	.cfi_endproc
.LFE9447:
	.section	.gcc_except_table
.LLSDA9447:
	.byte	0xff
	.byte	0xff
	.byte	0x1
	.uleb128 .LLSDACSE9447-.LLSDACSB9447
.LLSDACSB9447:
.LLSDACSE9447:
	.section	.text._ZN2cv3MatD2Ev,"axG",@progbits,_ZN2cv3MatD5Ev,comdat
	.size	_ZN2cv3MatD2Ev, .-_ZN2cv3MatD2Ev
	.section	.text.unlikely._ZN2cv3MatD2Ev,"axG",@progbits,_ZN2cv3MatD5Ev,comdat
.LCOLDE20:
	.section	.text._ZN2cv3MatD2Ev,"axG",@progbits,_ZN2cv3MatD5Ev,comdat
.LHOTE20:
	.weak	_ZN2cv3MatD1Ev
	.set	_ZN2cv3MatD1Ev,_ZN2cv3MatD2Ev
	.section	.rodata.str1.8
	.align 8
.LC35:
	.string	"ERROR: lapack routine LAPACKE_zgetrs() for solving a of sigma = %f failed!\n"
	.align 8
.LC36:
	.string	"ERROR: lapack routine LAPACKE_zgetrf() for solving b of simga = %f failed!\n"
	.align 8
.LC37:
	.string	"ERROR: lapack routine LAPACKE_zgetrs() for solving b of sigma = %f failed!\n"
	.section	.text.unlikely._ZN15fastGaussianIIR16getCoefficients_EdPfS0_S0_,"axG",@progbits,_ZN15fastGaussianIIR16getCoefficients_EdPfS0_S0_,comdat
	.align 2
.LCOLDB40:
	.section	.text._ZN15fastGaussianIIR16getCoefficients_EdPfS0_S0_,"axG",@progbits,_ZN15fastGaussianIIR16getCoefficients_EdPfS0_S0_,comdat
.LHOTB40:
	.align 2
	.p2align 4,,15
	.weak	_ZN15fastGaussianIIR16getCoefficients_EdPfS0_S0_
	.type	_ZN15fastGaussianIIR16getCoefficients_EdPfS0_S0_, @function
_ZN15fastGaussianIIR16getCoefficients_EdPfS0_S0_:
.LFB11284:
	.loc 1 625 0
	.cfi_startproc
.LVL1264:
	pushq	%r15
	.cfi_def_cfa_offset 16
	.cfi_offset 15, -16
	pushq	%r14
	.cfi_def_cfa_offset 24
	.cfi_offset 14, -24
	movq	%rdx, %r15
	pushq	%r13
	.cfi_def_cfa_offset 32
	.cfi_offset 13, -32
	pushq	%r12
	.cfi_def_cfa_offset 40
	.cfi_offset 12, -40
	pushq	%rbp
	.cfi_def_cfa_offset 48
	.cfi_offset 6, -48
	pushq	%rbx
	.cfi_def_cfa_offset 56
	.cfi_offset 3, -56
	.loc 1 626 0
	xorl	%ebx, %ebx
	.loc 1 625 0
	movapd	%xmm0, %xmm6
.LBB8645:
	.loc 1 641 0
	xorl	%ebp, %ebp
.LBE8645:
	.loc 1 625 0
	subq	$616, %rsp
	.cfi_def_cfa_offset 672
.LBB8757:
	.loc 1 633 0
	movsd	.LC21(%rip), %xmm2
.LBE8757:
	.loc 1 625 0
	movq	%rcx, 120(%rsp)
	leaq	144(%rsp), %r13
.LBB8806:
.LBB8758:
.LBB8759:
.LBB8760:
	.file 14 "/usr/include/c++/5/complex"
	.loc 14 750 0
	movsd	.LC22(%rip), %xmm1
.LBE8760:
.LBE8759:
.LBE8758:
.LBE8806:
	.loc 1 625 0
	movq	%rsi, 112(%rsp)
.LVL1265:
.LBB8807:
	.loc 1 633 0
	divsd	%xmm0, %xmm2
.LVL1266:
.LBB8777:
.LBB8769:
.LBB8761:
	.loc 14 750 0
	movsd	%xmm6, 40(%rsp)
	leaq	272(%rsp), %r12
.LBE8761:
.LBE8769:
.LBE8777:
.LBE8807:
	.loc 1 625 0
	movq	%fs:40, %rax
	movq	%rax, 600(%rsp)
	xorl	%eax, %eax
	leaq	352(%rsp), %r14
.LBB8808:
.LBB8778:
.LBB8770:
.LBB8762:
	.loc 14 750 0
	divsd	%xmm6, %xmm1
	movapd	%xmm2, %xmm0
.LVL1267:
	movsd	%xmm2, (%rsp)
	call	cexp
.LVL1268:
	movsd	%xmm1, 72(%rsp)
.LVL1269:
.LBE8762:
.LBE8770:
.LBE8778:
	.loc 1 633 0
	movsd	%xmm1, 152(%rsp)
.LVL1270:
.LBB8779:
.LBB8780:
.LBB8781:
	.loc 14 750 0
	movsd	.LC23(%rip), %xmm1
	movsd	(%rsp), %xmm2
	divsd	40(%rsp), %xmm1
.LBE8781:
.LBE8780:
.LBE8779:
.LBB8794:
.LBB8771:
.LBB8763:
	movsd	%xmm0, 64(%rsp)
.LBE8763:
.LBE8771:
.LBE8794:
	.loc 1 633 0
	movsd	%xmm0, 144(%rsp)
.LBB8795:
.LBB8788:
.LBB8782:
	.loc 14 750 0
	movapd	%xmm2, %xmm0
	call	cexp
.LVL1271:
.LBE8782:
.LBE8788:
.LBE8795:
	.loc 1 633 0
	movsd	40(%rsp), %xmm6
	movsd	.LC27(%rip), %xmm2
.LBB8796:
.LBB8789:
.LBB8783:
	.loc 14 750 0
	movsd	%xmm1, 88(%rsp)
.LVL1272:
.LBE8783:
.LBE8789:
.LBE8796:
	.loc 1 633 0
	divsd	%xmm6, %xmm2
	.loc 1 634 0
	movsd	%xmm1, 168(%rsp)
.LBB8797:
.LBB8790:
.LBB8784:
	.loc 14 750 0
	movsd	%xmm0, 80(%rsp)
.LBE8784:
.LBE8790:
.LBE8797:
	.loc 1 634 0
	movsd	%xmm0, 160(%rsp)
.LBB8798:
.LBB8772:
.LBB8764:
	.loc 14 750 0
	movsd	.LC28(%rip), %xmm1
.LBE8764:
.LBE8772:
.LBE8798:
	.loc 1 635 0
	movsd	.LC24(%rip), %xmm5
.LBB8799:
.LBB8773:
.LBB8765:
	.loc 14 750 0
	divsd	%xmm6, %xmm1
	movapd	%xmm2, %xmm0
.LBE8765:
.LBE8773:
.LBE8799:
	.loc 1 635 0
	movsd	%xmm5, 208(%rsp)
	.loc 1 636 0
	movsd	%xmm5, 224(%rsp)
.LBB8800:
.LBB8774:
.LBB8766:
	.loc 14 750 0
	movsd	%xmm2, (%rsp)
.LBE8766:
.LBE8774:
.LBE8800:
	.loc 1 635 0
	movsd	.LC25(%rip), %xmm7
	.loc 1 636 0
	movsd	.LC26(%rip), %xmm3
	.loc 1 635 0
	movsd	%xmm7, 216(%rsp)
	.loc 1 636 0
	movsd	%xmm3, 232(%rsp)
.LVL1273:
.LBB8801:
.LBB8775:
.LBB8767:
	.loc 14 750 0
	call	cexp
.LVL1274:
	movsd	%xmm1, 104(%rsp)
.LVL1275:
.LBE8767:
.LBE8775:
.LBE8801:
	.loc 1 633 0
	movsd	%xmm1, 184(%rsp)
.LVL1276:
.LBB8802:
.LBB8791:
.LBB8785:
	.loc 14 750 0
	movsd	.LC29(%rip), %xmm1
	movsd	(%rsp), %xmm2
	divsd	40(%rsp), %xmm1
.LBE8785:
.LBE8791:
.LBE8802:
.LBB8803:
.LBB8776:
.LBB8768:
	movsd	%xmm0, 96(%rsp)
.LBE8768:
.LBE8776:
.LBE8803:
	.loc 1 633 0
	movsd	%xmm0, 176(%rsp)
.LBB8804:
.LBB8792:
.LBB8786:
	.loc 14 750 0
	movapd	%xmm2, %xmm0
	call	cexp
.LVL1277:
.LBE8786:
.LBE8792:
.LBE8804:
.LBE8808:
	.loc 1 638 0
	leaq	336(%rsp), %rdi
	movq	%rbx, %rax
	movl	$32, %ecx
.LBB8809:
	.loc 1 635 0
	movsd	.LC30(%rip), %xmm6
	leaq	208(%rsp), %rbx
.LBE8809:
	.loc 1 638 0
	rep stosq
	.loc 1 639 0
	leaq	272(%rsp), %rdi
	movl	$8, %ecx
.LBB8810:
	.loc 1 635 0
	movsd	%xmm6, 240(%rsp)
	movsd	.LC31(%rip), %xmm6
	.loc 1 636 0
	movsd	.LC32(%rip), %xmm5
	.loc 1 635 0
	movsd	%xmm6, 248(%rsp)
	.loc 1 636 0
	movsd	.LC30(%rip), %xmm6
.LBE8810:
	.loc 1 639 0
	rep stosq
.LBB8811:
.LBB8805:
.LBB8793:
.LBB8787:
	.loc 14 750 0
	movsd	%xmm0, 48(%rsp)
	movsd	%xmm1, 56(%rsp)
.LVL1278:
.LBE8787:
.LBE8793:
.LBE8805:
	.loc 1 634 0
	movsd	%xmm0, 192(%rsp)
	movsd	%xmm1, 200(%rsp)
	.loc 1 636 0
	movsd	%xmm6, 256(%rsp)
	movsd	%xmm5, 264(%rsp)
.LVL1279:
.L618:
.LBE8811:
.LBB8812:
.LBB8646:
.LBB8647:
.LBB8648:
.LBB8649:
.LBB8650:
	.loc 14 1334 0
	pxor	%xmm1, %xmm1
	movsd	.LC15(%rip), %xmm0
	movsd	8(%r13), %xmm3
	movsd	0(%r13), %xmm2
	call	__divdc3
.LVL1280:
.LBE8650:
.LBE8649:
.LBE8648:
.LBE8647:
.LBB8651:
.LBB8652:
	.loc 14 1254 0
	movsd	.LC33(%rip), %xmm6
.LBE8652:
.LBE8651:
	.loc 1 644 0
	testl	%ebp, %ebp
	.loc 1 642 0
	movsd	%xmm0, -16(%r14)
.LBB8655:
.LBB8653:
	.loc 14 1254 0
	movq	$0, 8(%r12)
.LBE8653:
.LBE8655:
	.loc 1 642 0
	movsd	%xmm1, -8(%r14)
.LVL1281:
.LBB8656:
.LBB8654:
	.loc 14 1254 0
	movsd	%xmm6, (%r12)
.LBE8654:
.LBE8656:
	.loc 1 644 0
	je	.L611
.LVL1282:
.LBB8657:
.LBB8658:
.LBB8659:
.LBB8660:
	.loc 14 1323 0 discriminator 1
	movapd	%xmm1, %xmm3
	movapd	%xmm0, %xmm2
	movsd	%xmm1, 16(%rsp)
	movsd	%xmm0, 8(%rsp)
	movsd	72(%rsp), %xmm1
.LVL1283:
	movsd	64(%rsp), %xmm0
.LVL1284:
	call	__muldc3
.LVL1285:
.LBE8660:
.LBE8659:
.LBE8658:
.LBE8657:
.LBB8661:
.LBB8662:
	movapd	%xmm1, %xmm3
	movsd	.LC15(%rip), %xmm2
	xorpd	.LC34(%rip), %xmm3
	subsd	%xmm0, %xmm2
	movsd	8(%rbx), %xmm1
.LVL1286:
	movsd	(%rbx), %xmm0
	call	__muldc3
.LVL1287:
.LBE8662:
.LBE8661:
.LBB8666:
.LBB8667:
.LBB8668:
.LBB8669:
.LBB8670:
	movsd	16(%rsp), %xmm5
	movsd	8(%rsp), %xmm4
.LBE8670:
.LBE8669:
.LBE8668:
.LBE8667:
.LBE8666:
.LBB8747:
.LBB8663:
	movsd	%xmm1, (%rsp)
.LBE8663:
.LBE8747:
.LBB8748:
.LBB8692:
.LBB8685:
.LBB8678:
.LBB8671:
	movapd	%xmm5, %xmm3
.LBE8671:
.LBE8678:
.LBE8685:
.LBE8692:
.LBE8748:
.LBB8749:
.LBB8664:
	movsd	%xmm0, (%rbx)
.LBE8664:
.LBE8749:
.LBB8750:
.LBB8693:
.LBB8686:
.LBB8679:
.LBB8672:
	movapd	%xmm4, %xmm2
	movapd	%xmm4, %xmm0
.LBE8672:
.LBE8679:
.LBE8686:
.LBE8693:
.LBE8750:
.LBB8751:
.LBB8665:
	movsd	%xmm1, 8(%rbx)
.LVL1288:
.LBE8665:
.LBE8751:
.LBB8752:
.LBB8694:
.LBB8687:
.LBB8680:
.LBB8673:
	movapd	%xmm5, %xmm1
	call	__muldc3
.LVL1289:
.LBE8673:
.LBE8680:
.LBE8687:
.LBE8694:
	.loc 1 651 0 discriminator 1
	cmpl	$1, %ebp
	.loc 1 647 0 discriminator 1
	movsd	%xmm0, (%r14)
	movsd	%xmm1, 8(%r14)
	.loc 1 651 0 discriminator 1
	movsd	8(%rsp), %xmm4
	movsd	16(%rsp), %xmm5
	je	.L612
	.loc 1 651 0 is_stmt 0
	movq	%r14, 24(%rsp)
.LVL1290:
.L622:
.LBB8695:
.LBB8696:
.LBB8697:
.LBB8698:
.LBB8699:
.LBB8700:
	.loc 14 1224 0 is_stmt 1
	movsd	-16(%r14), %xmm7
.LVL1291:
.LBE8700:
.LBE8699:
.LBB8701:
.LBB8702:
	.loc 14 1228 0
	movsd	-8(%r14), %xmm6
.LVL1292:
.LBE8702:
.LBE8701:
	.loc 14 1323 0
	movapd	%xmm7, %xmm2
	movsd	80(%rsp), %xmm0
	movapd	%xmm6, %xmm3
	movsd	%xmm6, 16(%rsp)
	movsd	88(%rsp), %xmm1
	movsd	%xmm7, 8(%rsp)
	call	__muldc3
.LVL1293:
.LBE8698:
.LBE8697:
.LBE8696:
.LBE8695:
.LBB8712:
.LBB8713:
	movsd	.LC15(%rip), %xmm4
	xorpd	.LC34(%rip), %xmm1
.LVL1294:
	subsd	%xmm0, %xmm4
	movsd	(%rsp), %xmm3
	movsd	(%rbx), %xmm2
	movapd	%xmm4, %xmm0
	call	__muldc3
.LVL1295:
.LBE8713:
.LBE8712:
.LBB8719:
.LBB8720:
.LBB8721:
.LBB8722:
	movsd	8(%r14), %xmm4
.LBE8722:
.LBE8721:
.LBE8720:
.LBE8719:
.LBB8732:
.LBB8714:
	movsd	%xmm1, (%rsp)
	movsd	%xmm0, (%rbx)
.LBE8714:
.LBE8732:
.LBB8733:
.LBB8729:
.LBB8726:
.LBB8723:
	movapd	%xmm4, %xmm3
.LBE8723:
.LBE8726:
.LBE8729:
.LBE8733:
.LBB8734:
.LBB8715:
	movsd	%xmm1, 8(%rbx)
.LVL1296:
.LBE8715:
.LBE8734:
.LBB8735:
.LBB8730:
.LBB8727:
.LBB8724:
	movsd	8(%rsp), %xmm0
	movsd	16(%rsp), %xmm1
	movsd	(%r14), %xmm2
	movsd	%xmm4, 32(%rsp)
	call	__muldc3
.LVL1297:
.LBE8724:
.LBE8727:
.LBE8730:
.LBE8735:
	.loc 1 651 0
	cmpl	$2, %ebp
	.loc 1 649 0
	movsd	%xmm0, 16(%r14)
	movsd	%xmm1, 24(%r14)
	.loc 1 651 0
	je	.L613
.LVL1298:
.L623:
.LBB8736:
.LBB8709:
.LBB8706:
.LBB8703:
	.loc 14 1323 0
	movsd	96(%rsp), %xmm0
	movsd	16(%rsp), %xmm3
	movsd	8(%rsp), %xmm2
	movsd	104(%rsp), %xmm1
	call	__muldc3
.LVL1299:
.LBE8703:
.LBE8706:
.LBE8709:
.LBE8736:
.LBB8737:
.LBB8716:
	movsd	.LC15(%rip), %xmm6
	xorpd	.LC34(%rip), %xmm1
.LVL1300:
	subsd	%xmm0, %xmm6
	movsd	(%rsp), %xmm3
	movsd	(%rbx), %xmm2
	movapd	%xmm6, %xmm0
	call	__muldc3
.LVL1301:
.LBE8716:
.LBE8737:
.LBB8738:
.LBB8688:
.LBB8681:
.LBB8674:
	movq	24(%rsp), %rax
.LBE8674:
.LBE8681:
.LBE8688:
.LBE8738:
.LBB8739:
.LBB8717:
	movsd	%xmm1, (%rsp)
	movsd	%xmm0, (%rbx)
	movsd	%xmm1, 8(%rbx)
.LVL1302:
.LBE8717:
.LBE8739:
.LBB8740:
.LBB8689:
.LBB8682:
.LBB8675:
	movsd	(%rax), %xmm0
	movsd	8(%rax), %xmm1
	movsd	32(%rsp), %xmm3
	movsd	(%r14), %xmm2
	call	__muldc3
.LVL1303:
.LBE8675:
.LBE8682:
.LBE8689:
.LBE8740:
	.loc 1 651 0
	cmpl	$3, %ebp
	.loc 1 647 0
	movsd	%xmm0, 32(%r14)
	movsd	%xmm1, 40(%r14)
	.loc 1 651 0
	je	.L617
.L614:
.LVL1304:
.LBB8741:
.LBB8710:
.LBB8707:
.LBB8704:
	.loc 14 1323 0
	movsd	48(%rsp), %xmm0
.LBE8704:
.LBE8707:
.LBE8710:
.LBE8741:
.LBE8752:
.LBE8646:
	.loc 1 641 0
	addl	$1, %ebp
.LVL1305:
	addq	$16, %r13
.LBB8755:
.LBB8753:
.LBB8742:
.LBB8711:
.LBB8708:
.LBB8705:
	.loc 14 1323 0
	movsd	16(%rsp), %xmm3
	addq	$16, %r12
	movsd	8(%rsp), %xmm2
	addq	$16, %rbx
	movsd	56(%rsp), %xmm1
	addq	$64, %r14
.LVL1306:
	call	__muldc3
.LVL1307:
.LBE8705:
.LBE8708:
.LBE8711:
.LBE8742:
.LBB8743:
.LBB8718:
	movsd	.LC15(%rip), %xmm7
	xorpd	.LC34(%rip), %xmm1
.LVL1308:
	subsd	%xmm0, %xmm7
	movsd	-16(%rbx), %xmm2
	movsd	(%rsp), %xmm3
	movapd	%xmm7, %xmm0
	call	__muldc3
.LVL1309:
	movsd	%xmm0, -16(%rbx)
	movsd	%xmm1, -8(%rbx)
.LVL1310:
.LBE8718:
.LBE8743:
.LBE8753:
.LBE8755:
	.loc 1 641 0
	cmpl	$4, %ebp
	jne	.L618
.LVL1311:
.L617:
.LBE8812:
	.loc 1 655 0
	leaq	128(%rsp), %rbx
	leaq	336(%rsp), %rcx
	movl	$4, %r8d
	movl	$4, %edx
	movl	$4, %esi
	movl	$101, %edi
	movq	%rbx, %r9
	call	LAPACKE_zgetrf
.LVL1312:
	testl	%eax, %eax
	jne	.L634
	.loc 1 659 0
	subq	$8, %rsp
	.cfi_def_cfa_offset 680
	movl	$4, %r9d
	movl	$1, %ecx
	pushq	$1
	.cfi_def_cfa_offset 688
	movl	$4, %edx
	movl	$78, %esi
	movl	$101, %edi
	leaq	288(%rsp), %rax
.LVL1313:
	pushq	%rax
	.cfi_def_cfa_offset 696
	pushq	%rbx
	.cfi_def_cfa_offset 704
	leaq	368(%rsp), %r8
	call	LAPACKE_zgetrs
.LVL1314:
	addq	$32, %rsp
	.cfi_def_cfa_offset 672
	testl	%eax, %eax
	jne	.L635
.LVL1315:
.LBB8813:
.LBB8814:
.LBB8815:
	.loc 14 1254 0
	pxor	%xmm4, %xmm4
	movsd	.LC15(%rip), %xmm7
.LBE8815:
.LBE8814:
.LBB8827:
.LBB8828:
.LBB8829:
.LBB8830:
	.loc 14 1334 0
	movsd	152(%rsp), %xmm3
	movapd	%xmm7, %xmm0
	movapd	%xmm4, %xmm1
	movsd	144(%rsp), %xmm2
.LBE8830:
.LBE8829:
.LBE8828:
.LBE8827:
.LBB8867:
.LBB8816:
	.loc 14 1254 0
	movsd	%xmm7, 336(%rsp)
	movsd	%xmm4, 344(%rsp)
.LVL1316:
.LBE8816:
.LBE8867:
.LBB8868:
.LBB8855:
.LBB8843:
.LBB8831:
	.loc 14 1334 0
	movsd	%xmm4, 16(%rsp)
	call	__divdc3
.LVL1317:
.LBE8831:
.LBE8843:
.LBE8855:
.LBE8868:
.LBB8869:
.LBB8870:
.LBB8871:
.LBB8872:
	.loc 14 1323 0
	movapd	%xmm1, %xmm3
.LBE8872:
.LBE8871:
.LBE8870:
.LBE8869:
	.loc 1 665 0
	movsd	%xmm0, 352(%rsp)
.LBB8918:
.LBB8903:
.LBB8888:
.LBB8873:
	.loc 14 1323 0
	movapd	%xmm0, %xmm2
.LBE8873:
.LBE8888:
.LBE8903:
.LBE8918:
	.loc 1 665 0
	movsd	%xmm1, 360(%rsp)
.LVL1318:
.LBB8919:
.LBB8904:
.LBB8889:
.LBB8874:
	.loc 14 1323 0
	movsd	%xmm1, 8(%rsp)
	movsd	%xmm0, (%rsp)
	call	__muldc3
.LVL1319:
.LBE8874:
.LBE8889:
.LBE8904:
.LBE8919:
.LBB8920:
.LBB8921:
.LBB8922:
.LBB8923:
	movsd	8(%rsp), %xmm6
	movsd	(%rsp), %xmm5
.LBE8923:
.LBE8922:
.LBE8921:
.LBE8920:
.LBB8957:
.LBB8905:
.LBB8890:
.LBB8875:
	movapd	%xmm0, %xmm2
.LVL1320:
.LBE8875:
.LBE8890:
.LBE8905:
.LBE8957:
.LBB8958:
.LBB8946:
.LBB8935:
.LBB8924:
	movapd	%xmm1, %xmm3
.LBE8924:
.LBE8935:
.LBE8946:
.LBE8958:
	.loc 1 666 0
	movsd	%xmm0, 368(%rsp)
	movsd	%xmm1, 376(%rsp)
.LVL1321:
.LBB8959:
.LBB8947:
.LBB8936:
.LBB8925:
	.loc 14 1323 0
	movapd	%xmm5, %xmm0
.LVL1322:
	movapd	%xmm6, %xmm1
.LVL1323:
	call	__muldc3
.LVL1324:
.LBE8925:
.LBE8936:
.LBE8947:
.LBE8959:
.LBB8960:
.LBB8817:
	.loc 14 1254 0
	movsd	.LC15(%rip), %xmm4
.LBE8817:
.LBE8960:
.LBB8961:
.LBB8856:
.LBB8844:
.LBB8832:
	.loc 14 1334 0
	movsd	168(%rsp), %xmm3
.LBE8832:
.LBE8844:
.LBE8856:
.LBE8961:
.LBB8962:
.LBB8818:
	.loc 14 1254 0
	movsd	%xmm4, 400(%rsp)
	movsd	16(%rsp), %xmm4
.LBE8818:
.LBE8962:
.LBB8963:
.LBB8857:
.LBB8845:
.LBB8833:
	.loc 14 1334 0
	movsd	160(%rsp), %xmm2
.LBE8833:
.LBE8845:
.LBE8857:
.LBE8963:
	.loc 1 667 0
	movsd	%xmm0, 384(%rsp)
	movsd	%xmm1, 392(%rsp)
.LVL1325:
.LBB8964:
.LBB8858:
.LBB8846:
.LBB8834:
	.loc 14 1334 0
	movapd	%xmm4, %xmm1
	movsd	.LC15(%rip), %xmm0
.LBE8834:
.LBE8846:
.LBE8858:
.LBE8964:
.LBB8965:
.LBB8819:
	.loc 14 1254 0
	movsd	%xmm4, 408(%rsp)
.LVL1326:
.LBE8819:
.LBE8965:
.LBB8966:
.LBB8859:
.LBB8847:
.LBB8835:
	.loc 14 1334 0
	call	__divdc3
.LVL1327:
.LBE8835:
.LBE8847:
.LBE8859:
.LBE8966:
.LBB8967:
.LBB8906:
.LBB8891:
.LBB8876:
	.loc 14 1323 0
	movapd	%xmm1, %xmm3
.LBE8876:
.LBE8891:
.LBE8906:
.LBE8967:
	.loc 1 665 0
	movsd	%xmm0, 416(%rsp)
.LBB8968:
.LBB8907:
.LBB8892:
.LBB8877:
	.loc 14 1323 0
	movapd	%xmm0, %xmm2
.LBE8877:
.LBE8892:
.LBE8907:
.LBE8968:
	.loc 1 665 0
	movsd	%xmm1, 424(%rsp)
.LVL1328:
.LBB8969:
.LBB8908:
.LBB8893:
.LBB8878:
	.loc 14 1323 0
	movsd	%xmm1, 8(%rsp)
	movsd	%xmm0, (%rsp)
	call	__muldc3
.LVL1329:
.LBE8878:
.LBE8893:
.LBE8908:
.LBE8969:
.LBB8970:
.LBB8948:
.LBB8937:
.LBB8926:
	movsd	8(%rsp), %xmm6
	movsd	(%rsp), %xmm5
.LBE8926:
.LBE8937:
.LBE8948:
.LBE8970:
.LBB8971:
.LBB8909:
.LBB8894:
.LBB8879:
	movapd	%xmm0, %xmm2
.LVL1330:
.LBE8879:
.LBE8894:
.LBE8909:
.LBE8971:
.LBB8972:
.LBB8949:
.LBB8938:
.LBB8927:
	movapd	%xmm1, %xmm3
.LBE8927:
.LBE8938:
.LBE8949:
.LBE8972:
	.loc 1 666 0
	movsd	%xmm0, 432(%rsp)
	movsd	%xmm1, 440(%rsp)
.LVL1331:
.LBB8973:
.LBB8950:
.LBB8939:
.LBB8928:
	.loc 14 1323 0
	movapd	%xmm5, %xmm0
.LVL1332:
	movapd	%xmm6, %xmm1
.LVL1333:
	call	__muldc3
.LVL1334:
.LBE8928:
.LBE8939:
.LBE8950:
.LBE8973:
.LBB8974:
.LBB8820:
	.loc 14 1254 0
	movsd	16(%rsp), %xmm4
	movsd	.LC15(%rip), %xmm3
.LBE8820:
.LBE8974:
.LBB8975:
.LBB8860:
.LBB8848:
.LBB8836:
	.loc 14 1334 0
	movsd	176(%rsp), %xmm2
.LBE8836:
.LBE8848:
.LBE8860:
.LBE8975:
	.loc 1 667 0
	movsd	%xmm0, 448(%rsp)
	movsd	%xmm1, 456(%rsp)
.LVL1335:
.LBB8976:
.LBB8861:
.LBB8849:
.LBB8837:
	.loc 14 1334 0
	movapd	%xmm4, %xmm1
	movsd	.LC15(%rip), %xmm0
.LBE8837:
.LBE8849:
.LBE8861:
.LBE8976:
.LBB8977:
.LBB8821:
	.loc 14 1254 0
	movsd	%xmm3, 464(%rsp)
.LBE8821:
.LBE8977:
.LBB8978:
.LBB8862:
.LBB8850:
.LBB8838:
	.loc 14 1334 0
	movsd	184(%rsp), %xmm3
.LBE8838:
.LBE8850:
.LBE8862:
.LBE8978:
.LBB8979:
.LBB8822:
	.loc 14 1254 0
	movsd	%xmm4, 472(%rsp)
.LVL1336:
.LBE8822:
.LBE8979:
.LBB8980:
.LBB8863:
.LBB8851:
.LBB8839:
	.loc 14 1334 0
	call	__divdc3
.LVL1337:
.LBE8839:
.LBE8851:
.LBE8863:
.LBE8980:
.LBB8981:
.LBB8910:
.LBB8895:
.LBB8880:
	.loc 14 1323 0
	movapd	%xmm1, %xmm3
.LBE8880:
.LBE8895:
.LBE8910:
.LBE8981:
	.loc 1 665 0
	movsd	%xmm0, 480(%rsp)
.LBB8982:
.LBB8911:
.LBB8896:
.LBB8881:
	.loc 14 1323 0
	movapd	%xmm0, %xmm2
.LBE8881:
.LBE8896:
.LBE8911:
.LBE8982:
	.loc 1 665 0
	movsd	%xmm1, 488(%rsp)
.LVL1338:
.LBB8983:
.LBB8912:
.LBB8897:
.LBB8882:
	.loc 14 1323 0
	movsd	%xmm1, 8(%rsp)
	movsd	%xmm0, (%rsp)
	call	__muldc3
.LVL1339:
.LBE8882:
.LBE8897:
.LBE8912:
.LBE8983:
.LBB8984:
.LBB8951:
.LBB8940:
.LBB8929:
	movsd	(%rsp), %xmm5
	movsd	8(%rsp), %xmm6
.LBE8929:
.LBE8940:
.LBE8951:
.LBE8984:
.LBB8985:
.LBB8913:
.LBB8898:
.LBB8883:
	movapd	%xmm0, %xmm2
.LVL1340:
.LBE8883:
.LBE8898:
.LBE8913:
.LBE8985:
.LBB8986:
.LBB8952:
.LBB8941:
.LBB8930:
	movapd	%xmm1, %xmm3
.LBE8930:
.LBE8941:
.LBE8952:
.LBE8986:
	.loc 1 666 0
	movsd	%xmm0, 496(%rsp)
	movsd	%xmm1, 504(%rsp)
.LVL1341:
.LBB8987:
.LBB8953:
.LBB8942:
.LBB8931:
	.loc 14 1323 0
	movapd	%xmm5, %xmm0
.LVL1342:
	movapd	%xmm6, %xmm1
.LVL1343:
	call	__muldc3
.LVL1344:
.LBE8931:
.LBE8942:
.LBE8953:
.LBE8987:
.LBB8988:
.LBB8823:
	.loc 14 1254 0
	movsd	.LC15(%rip), %xmm6
.LBE8823:
.LBE8988:
	.loc 1 667 0
	movsd	%xmm0, 512(%rsp)
.LBB8989:
.LBB8824:
	.loc 14 1254 0
	movsd	%xmm6, 528(%rsp)
.LBE8824:
.LBE8989:
.LBB8990:
.LBB8864:
.LBB8852:
.LBB8840:
	.loc 14 1334 0
	movapd	%xmm6, %xmm0
.LBE8840:
.LBE8852:
.LBE8864:
.LBE8990:
	.loc 1 667 0
	movsd	%xmm1, 520(%rsp)
.LVL1345:
.LBB8991:
.LBB8825:
	.loc 14 1254 0
	movsd	16(%rsp), %xmm4
.LBE8825:
.LBE8991:
.LBB8992:
.LBB8865:
.LBB8853:
.LBB8841:
	.loc 14 1334 0
	movsd	200(%rsp), %xmm3
	movapd	%xmm4, %xmm1
	movsd	192(%rsp), %xmm2
.LBE8841:
.LBE8853:
.LBE8865:
.LBE8992:
.LBB8993:
.LBB8826:
	.loc 14 1254 0
	movsd	%xmm4, 536(%rsp)
.LVL1346:
.LBE8826:
.LBE8993:
.LBB8994:
.LBB8866:
.LBB8854:
.LBB8842:
	.loc 14 1334 0
	call	__divdc3
.LVL1347:
.LBE8842:
.LBE8854:
.LBE8866:
.LBE8994:
.LBB8995:
.LBB8914:
.LBB8899:
.LBB8884:
	.loc 14 1323 0
	movapd	%xmm1, %xmm3
.LBE8884:
.LBE8899:
.LBE8914:
.LBE8995:
	.loc 1 665 0
	movsd	%xmm0, 544(%rsp)
.LBB8996:
.LBB8915:
.LBB8900:
.LBB8885:
	.loc 14 1323 0
	movapd	%xmm0, %xmm2
.LBE8885:
.LBE8900:
.LBE8915:
.LBE8996:
	.loc 1 665 0
	movsd	%xmm1, 552(%rsp)
.LVL1348:
.LBB8997:
.LBB8916:
.LBB8901:
.LBB8886:
	.loc 14 1323 0
	movsd	%xmm1, 8(%rsp)
	movsd	%xmm0, (%rsp)
	call	__muldc3
.LVL1349:
.LBE8886:
.LBE8901:
.LBE8916:
.LBE8997:
.LBB8998:
.LBB8954:
.LBB8943:
.LBB8932:
	movsd	8(%rsp), %xmm5
	movsd	(%rsp), %xmm4
.LBE8932:
.LBE8943:
.LBE8954:
.LBE8998:
.LBB8999:
.LBB8917:
.LBB8902:
.LBB8887:
	movapd	%xmm0, %xmm2
.LVL1350:
.LBE8887:
.LBE8902:
.LBE8917:
.LBE8999:
.LBB9000:
.LBB8955:
.LBB8944:
.LBB8933:
	movapd	%xmm1, %xmm3
.LBE8933:
.LBE8944:
.LBE8955:
.LBE9000:
	.loc 1 666 0
	movsd	%xmm0, 560(%rsp)
	movsd	%xmm1, 568(%rsp)
.LVL1351:
.LBB9001:
.LBB8956:
.LBB8945:
.LBB8934:
	.loc 14 1323 0
	movapd	%xmm4, %xmm0
.LVL1352:
	movapd	%xmm5, %xmm1
.LVL1353:
	call	__muldc3
.LVL1354:
.LBE8934:
.LBE8945:
.LBE8956:
.LBE9001:
.LBE8813:
	.loc 1 669 0
	leaq	336(%rsp), %rcx
	movq	%rbx, %r9
	movl	$4, %r8d
	movl	$4, %edx
	movl	$4, %esi
	movl	$101, %edi
.LBB9002:
	.loc 1 667 0
	movsd	%xmm0, 576(%rsp)
	movsd	%xmm1, 584(%rsp)
.LVL1355:
.LBE9002:
	.loc 1 669 0
	call	LAPACKE_zgetrf
.LVL1356:
	testl	%eax, %eax
	jne	.L636
	.loc 1 673 0
	subq	$8, %rsp
	.cfi_def_cfa_offset 680
	movl	$4, %r9d
	movl	$1, %ecx
	pushq	$1
	.cfi_def_cfa_offset 688
	movl	$4, %edx
	movl	$78, %esi
	movl	$101, %edi
	leaq	224(%rsp), %rax
.LVL1357:
	pushq	%rax
	.cfi_def_cfa_offset 696
	pushq	%rbx
	.cfi_def_cfa_offset 704
	leaq	368(%rsp), %r8
	call	LAPACKE_zgetrs
.LVL1358:
	addq	$32, %rsp
	.cfi_def_cfa_offset 672
	testl	%eax, %eax
.LBB9003:
.LBB9004:
	.loc 8 98 0
	movsd	40(%rsp), %xmm0
.LBE9004:
.LBE9003:
	.loc 1 673 0
	jne	.L637
	mulsd	.LC38(%rip), %xmm0
.LVL1359:
.LBB9006:
	.loc 1 678 0
	movq	112(%rsp), %rax
.LVL1360:
	.loc 1 679 0
	movsd	208(%rsp), %xmm1
.LBE9006:
	.loc 1 681 0
	movq	120(%rsp), %rdx
.LBB9007:
	.loc 1 679 0
	pxor	%xmm7, %xmm7
	pxor	%xmm3, %xmm3
	.loc 1 678 0
	pxor	%xmm5, %xmm5
	pxor	%xmm4, %xmm4
	.loc 1 679 0
	divsd	%xmm0, %xmm1
	.loc 1 678 0
	cvtsd2ss	272(%rsp), %xmm5
	movss	%xmm5, (%rax)
	cvtsd2ss	288(%rsp), %xmm4
	.loc 1 679 0
	pxor	%xmm5, %xmm5
	.loc 1 678 0
	pxor	%xmm6, %xmm6
	.loc 1 679 0
	cvtsd2ss	%xmm1, %xmm7
	.loc 1 678 0
	cvtsd2ss	304(%rsp), %xmm6
	.loc 1 679 0
	movsd	224(%rsp), %xmm1
	divsd	%xmm0, %xmm1
	movss	%xmm7, (%r15)
.LVL1361:
	.loc 1 678 0
	movss	%xmm4, 4(%rax)
	.loc 1 679 0
	pxor	%xmm4, %xmm4
	.loc 1 678 0
	pxor	%xmm7, %xmm7
	.loc 1 679 0
	cvtsd2ss	%xmm1, %xmm3
	.loc 1 678 0
	cvtsd2ss	320(%rsp), %xmm7
	.loc 1 679 0
	movsd	240(%rsp), %xmm1
	divsd	%xmm0, %xmm1
	movss	%xmm3, 4(%r15)
.LVL1362:
	.loc 1 678 0
	movss	%xmm6, 8(%rax)
	.loc 1 679 0
	cvtsd2ss	%xmm1, %xmm5
	movsd	256(%rsp), %xmm1
	divsd	%xmm0, %xmm1
	movss	%xmm5, 8(%r15)
.LVL1363:
	.loc 1 678 0
	movss	%xmm7, 12(%rax)
	.loc 1 679 0
	movapd	%xmm1, %xmm0
.LBE9007:
	.loc 1 681 0
	movss	(%r15), %xmm1
.LBB9008:
	.loc 1 679 0
	cvtsd2ss	%xmm0, %xmm4
.LBE9008:
	.loc 1 681 0
	movss	4(%r15), %xmm0
.LBB9009:
	.loc 1 679 0
	movss	%xmm4, 12(%r15)
.LVL1364:
.LBE9009:
	.loc 1 681 0
	mulss	(%rax), %xmm1
	subss	%xmm1, %xmm0
	movss	%xmm0, (%rdx)
	.loc 1 682 0
	movss	(%r15), %xmm1
	mulss	4(%rax), %xmm1
	movss	8(%r15), %xmm0
	subss	%xmm1, %xmm0
	movss	%xmm0, 4(%rdx)
	.loc 1 683 0
	movss	(%r15), %xmm1
	mulss	8(%rax), %xmm1
	movss	12(%r15), %xmm0
	subss	%xmm1, %xmm0
	movss	%xmm0, 8(%rdx)
	.loc 1 684 0
	movss	(%r15), %xmm0
	movss	.LC39(%rip), %xmm1
	xorps	%xmm1, %xmm0
	mulss	12(%rax), %xmm0
	.loc 1 685 0
	movq	600(%rsp), %rax
	xorq	%fs:40, %rax
	.loc 1 684 0
	movss	%xmm0, 12(%rdx)
	.loc 1 685 0
	jne	.L638
	addq	$616, %rsp
	.cfi_remember_state
	.cfi_def_cfa_offset 56
	popq	%rbx
	.cfi_def_cfa_offset 48
	popq	%rbp
	.cfi_def_cfa_offset 40
	popq	%r12
	.cfi_def_cfa_offset 32
	popq	%r13
	.cfi_def_cfa_offset 24
	popq	%r14
	.cfi_def_cfa_offset 16
	popq	%r15
	.cfi_def_cfa_offset 8
.LVL1365:
	ret
.LVL1366:
.L611:
	.cfi_restore_state
.LBB9010:
.LBB8756:
.LBB8754:
.LBB8744:
.LBB8690:
.LBB8683:
.LBB8676:
	.loc 14 1323 0
	movsd	344(%rsp), %xmm3
	movsd	336(%rsp), %xmm2
	call	__muldc3
.LVL1367:
	movsd	8(%rbx), %xmm3
.LBE8676:
.LBE8683:
.LBE8690:
.LBE8744:
	.loc 1 647 0
	leaq	352(%rsp), %rax
	movsd	%xmm0, 352(%rsp)
	movsd	%xmm1, 360(%rsp)
	movq	%rax, 24(%rsp)
	movsd	%xmm3, (%rsp)
	jmp	.L622
.LVL1368:
.L613:
.LBB8745:
.LBB8691:
.LBB8684:
.LBB8677:
	.loc 14 1323 0
	movq	24(%rsp), %rax
	movsd	488(%rsp), %xmm3
	movsd	480(%rsp), %xmm2
	movsd	8(%rax), %xmm1
	movsd	(%rax), %xmm0
	call	__muldc3
.LVL1369:
.LBE8677:
.LBE8684:
.LBE8691:
.LBE8745:
	.loc 1 647 0
	movsd	%xmm0, 512(%rsp)
	movsd	%xmm1, 520(%rsp)
	movsd	-16(%r14), %xmm3
	movsd	%xmm3, 8(%rsp)
	movsd	-8(%r14), %xmm3
	movsd	%xmm3, 16(%rsp)
	jmp	.L614
.LVL1370:
.L612:
.LBB8746:
.LBB8731:
.LBB8728:
.LBB8725:
	.loc 14 1323 0
	movsd	424(%rsp), %xmm3
	movapd	%xmm5, %xmm1
	movapd	%xmm4, %xmm0
	movsd	416(%rsp), %xmm2
	call	__muldc3
.LVL1371:
.LBE8725:
.LBE8728:
.LBE8731:
.LBE8746:
	.loc 1 649 0
	movsd	%xmm0, 432(%rsp)
	movq	%r14, 24(%rsp)
	movsd	%xmm1, 440(%rsp)
	movsd	-16(%r14), %xmm3
	movsd	%xmm3, 8(%rsp)
	movsd	-8(%r14), %xmm3
	movsd	%xmm3, 16(%rsp)
	movsd	8(%r14), %xmm3
	movsd	%xmm3, 32(%rsp)
	jmp	.L623
.LVL1372:
.L638:
.LBE8754:
.LBE8756:
.LBE9010:
	.loc 1 685 0
	call	__stack_chk_fail
.LVL1373:
.L637:
.LBB9011:
.LBB9005:
	.loc 8 98 0
	movl	$.LC37, %edx
.LVL1374:
.L631:
.LBE9005:
.LBE9011:
.LBB9012:
.LBB9013:
	movq	stderr(%rip), %rdi
	movl	$1, %esi
	movl	$1, %eax
.LVL1375:
	call	__fprintf_chk
.LVL1376:
.LBE9013:
.LBE9012:
	.loc 1 671 0
	movl	$-1, %edi
	call	exit
.LVL1377:
.L636:
.LBB9015:
.LBB9014:
	.loc 8 98 0
	movsd	40(%rsp), %xmm0
	movl	$.LC36, %edx
	jmp	.L631
.LVL1378:
.L635:
.LBE9014:
.LBE9015:
.LBB9016:
.LBB9017:
	movsd	40(%rsp), %xmm0
	movl	$.LC35, %edx
	jmp	.L631
.LVL1379:
.L634:
.LBE9017:
.LBE9016:
	movsd	40(%rsp), %xmm0
	call	_ZN15fastGaussianIIR16getCoefficients_EdPfS0_S0_.part.37
.LVL1380:
	.cfi_endproc
.LFE11284:
	.size	_ZN15fastGaussianIIR16getCoefficients_EdPfS0_S0_, .-_ZN15fastGaussianIIR16getCoefficients_EdPfS0_S0_
	.section	.text.unlikely._ZN15fastGaussianIIR16getCoefficients_EdPfS0_S0_,"axG",@progbits,_ZN15fastGaussianIIR16getCoefficients_EdPfS0_S0_,comdat
.LCOLDE40:
	.section	.text._ZN15fastGaussianIIR16getCoefficients_EdPfS0_S0_,"axG",@progbits,_ZN15fastGaussianIIR16getCoefficients_EdPfS0_S0_,comdat
.LHOTE40:
	.section	.text.unlikely
	.align 2
.LCOLDB43:
	.text
.LHOTB43:
	.align 2
	.p2align 4,,15
	.globl	_ZN15fastGaussianIIRC2Edd
	.type	_ZN15fastGaussianIIRC2Edd, @function
_ZN15fastGaussianIIRC2Edd:
.LFB11278:
	.loc 1 336 0
	.cfi_startproc
.LVL1381:
	pushq	%rbx
	.cfi_def_cfa_offset 16
	.cfi_offset 3, -16
.LBB9032:
.LBB9033:
.LBB9034:
	.loc 1 689 0
	leaq	48(%rdi), %rcx
.LBE9034:
.LBE9033:
	.loc 1 336 0
	movsd	%xmm0, (%rdi)
	movsd	%xmm1, 8(%rdi)
.LVL1382:
.LBB9048:
.LBB9045:
	.loc 1 689 0
	leaq	32(%rdi), %rdx
	leaq	16(%rdi), %rsi
.LBE9045:
.LBE9048:
.LBE9032:
	.loc 1 336 0
	movq	%rdi, %rbx
.LBB9051:
.LBB9049:
.LBB9046:
	.loc 1 689 0
	call	_ZN15fastGaussianIIR16getCoefficients_EdPfS0_S0_
.LVL1383:
.LBB9035:
	.loc 1 695 0
	movsd	8(%rbx), %xmm0
	movsd	(%rbx), %xmm1
	movsd	.LC41(%rip), %xmm2
	subsd	%xmm0, %xmm1
	andpd	%xmm2, %xmm1
	movsd	.LC42(%rip), %xmm2
	ucomisd	%xmm1, %xmm2
	ja	.L647
.LBB9036:
	.loc 1 700 0
	leaq	96(%rbx), %rcx
	leaq	80(%rbx), %rdx
	leaq	64(%rbx), %rsi
	movq	%rbx, %rdi
.LBE9036:
.LBE9035:
.LBE9046:
.LBE9049:
.LBE9051:
	.loc 1 339 0
	popq	%rbx
	.cfi_remember_state
	.cfi_def_cfa_offset 8
.LVL1384:
.LBB9052:
.LBB9050:
.LBB9047:
.LBB9044:
.LBB9037:
	.loc 1 700 0
	jmp	_ZN15fastGaussianIIR16getCoefficients_EdPfS0_S0_
.LVL1385:
	.p2align 4,,10
	.p2align 3
.L647:
	.cfi_restore_state
.LBE9037:
.LBB9038:
.LBB9039:
	.loc 5 53 0
	movq	16(%rbx), %rax
	movq	24(%rbx), %rdx
	movq	%rax, 64(%rbx)
	movq	%rdx, 72(%rbx)
.LVL1386:
.LBE9039:
.LBE9038:
.LBB9040:
.LBB9041:
	movq	32(%rbx), %rax
	movq	40(%rbx), %rdx
	movq	%rax, 80(%rbx)
	movq	%rdx, 88(%rbx)
.LVL1387:
.LBE9041:
.LBE9040:
.LBB9042:
.LBB9043:
	movq	48(%rbx), %rax
	movq	56(%rbx), %rdx
	movq	%rax, 96(%rbx)
	movq	%rdx, 104(%rbx)
.LBE9043:
.LBE9042:
.LBE9044:
.LBE9047:
.LBE9050:
.LBE9052:
	.loc 1 339 0
	popq	%rbx
	.cfi_def_cfa_offset 8
.LVL1388:
	ret
	.cfi_endproc
.LFE11278:
	.size	_ZN15fastGaussianIIRC2Edd, .-_ZN15fastGaussianIIRC2Edd
	.section	.text.unlikely
.LCOLDE43:
	.text
.LHOTE43:
	.globl	_ZN15fastGaussianIIRC1Edd
	.set	_ZN15fastGaussianIIRC1Edd,_ZN15fastGaussianIIRC2Edd
	.section	.text.unlikely
	.align 2
.LCOLDB44:
	.text
.LHOTB44:
	.align 2
	.p2align 4,,15
	.globl	_ZN15fastGaussianIIR15getCoefficientsEv
	.type	_ZN15fastGaussianIIR15getCoefficientsEv, @function
_ZN15fastGaussianIIR15getCoefficientsEv:
.LFB11286:
	.loc 1 688 0
	.cfi_startproc
.LVL1389:
	pushq	%rbx
	.cfi_def_cfa_offset 16
	.cfi_offset 3, -16
	.loc 1 689 0
	leaq	48(%rdi), %rcx
	leaq	32(%rdi), %rdx
	leaq	16(%rdi), %rsi
	.loc 1 688 0
	movq	%rdi, %rbx
	.loc 1 689 0
	movsd	(%rdi), %xmm0
	call	_ZN15fastGaussianIIR16getCoefficients_EdPfS0_S0_
.LVL1390:
.LBB9064:
	.loc 1 695 0
	movsd	8(%rbx), %xmm0
	movsd	(%rbx), %xmm1
	movsd	.LC41(%rip), %xmm2
	subsd	%xmm0, %xmm1
	andpd	%xmm2, %xmm1
	movsd	.LC42(%rip), %xmm2
	ucomisd	%xmm1, %xmm2
	ja	.L656
.LBB9065:
	.loc 1 700 0
	leaq	96(%rbx), %rcx
	leaq	80(%rbx), %rdx
	leaq	64(%rbx), %rsi
	movq	%rbx, %rdi
.LBE9065:
.LBE9064:
	.loc 1 707 0
	popq	%rbx
	.cfi_remember_state
	.cfi_def_cfa_offset 8
.LVL1391:
.LBB9073:
.LBB9066:
	.loc 1 700 0
	jmp	_ZN15fastGaussianIIR16getCoefficients_EdPfS0_S0_
.LVL1392:
	.p2align 4,,10
	.p2align 3
.L656:
	.cfi_restore_state
.LBE9066:
.LBB9067:
.LBB9068:
	.loc 5 53 0
	movq	16(%rbx), %rax
	movq	24(%rbx), %rdx
	movq	%rax, 64(%rbx)
	movq	%rdx, 72(%rbx)
.LVL1393:
.LBE9068:
.LBE9067:
.LBB9069:
.LBB9070:
	movq	32(%rbx), %rax
	movq	40(%rbx), %rdx
	movq	%rax, 80(%rbx)
	movq	%rdx, 88(%rbx)
.LVL1394:
.LBE9070:
.LBE9069:
.LBB9071:
.LBB9072:
	movq	48(%rbx), %rax
	movq	56(%rbx), %rdx
	movq	%rax, 96(%rbx)
	movq	%rdx, 104(%rbx)
.LBE9072:
.LBE9071:
.LBE9073:
	.loc 1 707 0
	popq	%rbx
	.cfi_def_cfa_offset 8
.LVL1395:
	ret
	.cfi_endproc
.LFE11286:
	.size	_ZN15fastGaussianIIR15getCoefficientsEv, .-_ZN15fastGaussianIIR15getCoefficientsEv
	.section	.text.unlikely
.LCOLDE44:
	.text
.LHOTE44:
	.section	.rodata.str1.1
.LC45:
	.string	"bilateral_filter.cpp"
	.section	.rodata.str1.8
	.align 8
.LC46:
	.string	"h == dst.rows && w == dst.cols"
	.section	.text.unlikely
.LCOLDB48:
	.text
.LHOTB48:
	.p2align 4,,15
	.globl	_Z9boxFilterRKN2cv3MatERS0_ii
	.type	_Z9boxFilterRKN2cv3MatERS0_ii, @function
_Z9boxFilterRKN2cv3MatERS0_ii:
.LFB11288:
	.loc 1 723 0
	.cfi_startproc
	.cfi_personality 0x3,__gxx_personality_v0
	.cfi_lsda 0x3,.LLSDA11288
.LVL1396:
	.loc 1 724 0
	pxor	%xmm0, %xmm0
	.loc 1 723 0
	pushq	%r15
	.cfi_def_cfa_offset 16
	.cfi_offset 15, -16
	pushq	%r14
	.cfi_def_cfa_offset 24
	.cfi_offset 14, -24
	pushq	%r13
	.cfi_def_cfa_offset 32
	.cfi_offset 13, -32
	pushq	%r12
	.cfi_def_cfa_offset 40
	.cfi_offset 12, -40
	pushq	%rbp
	.cfi_def_cfa_offset 48
	.cfi_offset 6, -48
	.loc 1 724 0
	cvtsi2sd	%edx, %xmm0
	.loc 1 723 0
	pushq	%rbx
	.cfi_def_cfa_offset 56
	.cfi_offset 3, -56
	.loc 1 724 0
	pxor	%xmm1, %xmm1
	.loc 1 723 0
	subq	$280, %rsp
	.cfi_def_cfa_offset 336
	.loc 1 725 0
	movl	8(%rdi), %r14d
	movl	12(%rdi), %ebp
	.loc 1 723 0
	movq	%fs:40, %rax
	movq	%rax, 264(%rsp)
	xorl	%eax, %eax
	.loc 1 724 0
	leal	1(%rcx,%rcx), %eax
	movsd	.LC15(%rip), %xmm5
	.loc 1 726 0
	cmpl	8(%rsi), %r14d
	.loc 1 723 0
	movq	%rdi, 24(%rsp)
	.loc 1 724 0
	cvtsi2sd	%eax, %xmm1
	.loc 1 723 0
	movq	%rsi, 16(%rsp)
	movl	%edx, 56(%rsp)
	.loc 1 724 0
	addsd	%xmm0, %xmm0
	addsd	.LC15(%rip), %xmm0
	mulsd	%xmm1, %xmm0
	divsd	%xmm0, %xmm5
	movsd	%xmm5, 8(%rsp)
.LVL1397:
	.loc 1 726 0
	jne	.L658
	.loc 1 726 0 is_stmt 0 discriminator 2
	cmpl	12(%rsi), %ebp
	jne	.L658
.LBB9178:
.LBB9179:
	.loc 2 402 0 is_stmt 1
	movl	(%rdi), %eax
.LBE9179:
.LBE9178:
.LBB9184:
.LBB9185:
.LBB9186:
.LBB9187:
.LBB9188:
	.loc 2 738 0
	pxor	%xmm0, %xmm0
	movq	%rdi, %r12
.LVL1398:
.LBE9188:
.LBE9187:
.LBB9192:
.LBB9193:
	.loc 2 353 0
	leaq	128(%rsp), %rdx
.LVL1399:
	leaq	160(%rsp), %rdi
.LVL1400:
	movl	$2, %esi
.LVL1401:
	movl	%ecx, %ebx
	movl	$6, %ecx
.LVL1402:
.LBE9193:
.LBE9192:
.LBE9186:
.LBE9185:
.LBE9184:
.LBB9236:
.LBB9180:
	.loc 2 402 0
	movl	%eax, %r13d
	movl	%eax, 32(%rsp)
.LBE9180:
.LBE9236:
.LBB9237:
.LBB9228:
.LBB9213:
.LBB9196:
.LBB9197:
	.loc 2 709 0
	leaq	168(%rsp), %rax
.LBE9197:
.LBE9196:
.LBE9213:
.LBE9228:
.LBE9237:
.LBB9238:
.LBB9181:
	.loc 2 402 0
	andl	$4088, %r13d
.LBE9181:
.LBE9238:
.LBB9239:
.LBB9229:
.LBB9214:
.LBB9199:
.LBB9200:
	.loc 2 62 0
	movq	$0, 208(%rsp)
	movq	$0, 200(%rsp)
.LBE9200:
.LBE9199:
.LBE9214:
.LBE9229:
.LBE9239:
.LBB9240:
.LBB9182:
	.loc 2 402 0
	sarl	$3, %r13d
.LBE9182:
.LBE9240:
.LBB9241:
.LBB9230:
.LBB9215:
.LBB9204:
.LBB9198:
	.loc 2 709 0
	movq	%rax, 224(%rsp)
.LBE9198:
.LBE9204:
.LBB9205:
.LBB9189:
	.loc 2 738 0
	leaq	240(%rsp), %rax
.LBE9189:
.LBE9205:
.LBE9215:
.LBE9230:
.LBE9241:
.LBB9242:
.LBB9183:
	.loc 2 402 0
	leal	1(%r13), %r15d
.LBE9183:
.LBE9242:
.LBB9243:
.LBB9231:
.LBB9216:
.LBB9206:
.LBB9201:
	.loc 2 62 0
	movq	$0, 192(%rsp)
	movq	$0, 176(%rsp)
.LBE9201:
.LBE9206:
.LBB9207:
.LBB9190:
	.loc 2 738 0
	movaps	%xmm0, 240(%rsp)
.LBE9190:
.LBE9207:
.LBE9216:
.LBE9231:
.LBE9243:
	.loc 1 728 0
	imull	%r15d, %ebp
.LVL1403:
.LBB9244:
.LBB9232:
.LBB9217:
.LBB9208:
.LBB9191:
	.loc 2 738 0
	movq	%rax, 232(%rsp)
.LBE9191:
.LBE9208:
.LBB9209:
.LBB9202:
	.loc 2 63 0
	movq	$0, 184(%rsp)
	.loc 2 60 0
	movdqa	.LC47(%rip), %xmm0
	.loc 2 64 0
	movq	$0, 216(%rsp)
.LVL1404:
.LBE9202:
.LBE9209:
.LBB9210:
.LBB9194:
	.loc 2 352 0
	movl	%r14d, 128(%rsp)
.LBE9194:
.LBE9210:
.LBB9211:
.LBB9203:
	.loc 2 60 0
	movaps	%xmm0, 160(%rsp)
.LBE9203:
.LBE9211:
.LBB9212:
.LBB9195:
	.loc 2 352 0
	movl	%ebp, 132(%rsp)
.LEHB0:
	.loc 2 353 0
	call	_ZN2cv3Mat6createEiPKii
.LVL1405:
.LEHE0:
.LBE9195:
.LBE9212:
.LBE9217:
.LBB9218:
.LBB9219:
	.loc 2 910 0
	leaq	128(%rsp), %rsi
.LVL1406:
	leaq	160(%rsp), %rdi
.LVL1407:
.LBB9220:
.LBB9221:
.LBB9222:
.LBB9223:
	.loc 13 208 0
	movq	$0, 128(%rsp)
.LVL1408:
	movq	$0, 136(%rsp)
.LVL1409:
	movq	$0, 144(%rsp)
.LVL1410:
	movq	$0, 152(%rsp)
.LVL1411:
.LEHB1:
.LBE9223:
.LBE9222:
.LBE9221:
.LBE9220:
	.loc 2 910 0
	call	_ZN2cv3MataSERKNS_7Scalar_IdEE
.LVL1412:
.LEHE1:
	movq	176(%rsp), %rdi
.LVL1413:
	movl	%r15d, %eax
	movq	16(%r12), %rsi
.LVL1414:
	movq	%rax, %rcx
	movq	%rax, 112(%rsp)
	leaq	(%rdi,%rax,8), %rax
	cmpq	%rax, %rsi
	movq	%rcx, %rax
	setnb	%dl
	addq	%rsi, %rax
	cmpq	%rax, %rdi
	setnb	%al
	orb	%al, %dl
	je	.L746
	cmpl	$20, %r15d
	jbe	.L746
	movq	%rdi, %rax
	salq	$60, %rax
	shrq	$63, %rax
	cmpl	%r15d, %eax
	cmova	%r15d, %eax
	testl	%eax, %eax
	je	.L741
.LBE9219:
.LBE9218:
.LBE9232:
.LBE9244:
.LBB9245:
	.loc 1 733 0
	movzbl	(%rsi), %edx
	pxor	%xmm0, %xmm0
	.loc 1 732 0
	leaq	8(%rdi), %r10
	leaq	1(%rsi), %r9
	movl	$1, %r11d
	.loc 1 733 0
	cvtsi2sd	%edx, %xmm0
	movsd	%xmm0, (%rdi)
.LVL1415:
.L666:
	movl	%r15d, %r12d
.LVL1416:
	movl	%eax, %edx
	.loc 1 732 0
	xorl	%r8d, %r8d
	subl	%eax, %r12d
	leal	-16(%r12), %eax
	shrl	$4, %eax
	addl	$1, %eax
	movl	%eax, 32(%rsp)
	sall	$4, %eax
	movl	%eax, %ecx
	leaq	(%rdi,%rdx,8), %rax
	addq	%rsi, %rdx
.LVL1417:
.L668:
	.loc 1 733 0 discriminator 2
	movdqu	(%rdx), %xmm0
	addl	$1, %r8d
	subq	$-128, %rax
	addq	$16, %rdx
	pmovzxbw	%xmm0, %xmm1
	psrldq	$8, %xmm0
	pmovzxbw	%xmm0, %xmm0
	pmovzxwd	%xmm1, %xmm3
	psrldq	$8, %xmm1
	pmovzxwd	%xmm1, %xmm1
	pmovzxwd	%xmm0, %xmm2
	psrldq	$8, %xmm0
	cvtdq2pd	%xmm3, %xmm4
	pshufd	$238, %xmm3, %xmm3
	pmovzxwd	%xmm0, %xmm0
	movaps	%xmm4, -128(%rax)
	cvtdq2pd	%xmm3, %xmm3
	movaps	%xmm3, -112(%rax)
	cvtdq2pd	%xmm1, %xmm3
	pshufd	$238, %xmm1, %xmm1
	movaps	%xmm3, -96(%rax)
	cvtdq2pd	%xmm1, %xmm1
	movaps	%xmm1, -80(%rax)
	cvtdq2pd	%xmm2, %xmm1
	movaps	%xmm1, -64(%rax)
	pshufd	$238, %xmm2, %xmm1
	cvtdq2pd	%xmm1, %xmm1
	movaps	%xmm1, -48(%rax)
	cvtdq2pd	%xmm0, %xmm1
	pshufd	$238, %xmm0, %xmm0
	movaps	%xmm1, -32(%rax)
	cvtdq2pd	%xmm0, %xmm0
	movaps	%xmm0, -16(%rax)
	cmpl	32(%rsp), %r8d
	jb	.L668
	movl	%ecx, %eax
	addl	%ecx, %r11d
	leaq	(%r10,%rax,8), %rdx
	addq	%r9, %rax
	cmpl	%r12d, %ecx
	je	.L664
.LVL1418:
	.loc 1 733 0 is_stmt 0
	movzbl	(%rax), %ecx
	pxor	%xmm0, %xmm0
	cvtsi2sd	%ecx, %xmm0
	.loc 1 732 0 is_stmt 1
	leal	1(%r11), %ecx
	cmpl	%ecx, %r15d
	.loc 1 733 0
	movsd	%xmm0, (%rdx)
.LVL1419:
	.loc 1 732 0
	jle	.L664
	.loc 1 733 0
	movzbl	1(%rax), %ecx
	pxor	%xmm0, %xmm0
	cvtsi2sd	%ecx, %xmm0
	.loc 1 732 0
	leal	2(%r11), %ecx
	cmpl	%ecx, %r15d
	.loc 1 733 0
	movsd	%xmm0, 8(%rdx)
.LVL1420:
	.loc 1 732 0
	jle	.L664
	.loc 1 733 0
	movzbl	2(%rax), %ecx
	pxor	%xmm0, %xmm0
	cvtsi2sd	%ecx, %xmm0
	.loc 1 732 0
	leal	3(%r11), %ecx
	cmpl	%ecx, %r15d
	.loc 1 733 0
	movsd	%xmm0, 16(%rdx)
.LVL1421:
	.loc 1 732 0
	jle	.L664
	.loc 1 733 0
	movzbl	3(%rax), %ecx
	pxor	%xmm0, %xmm0
	cvtsi2sd	%ecx, %xmm0
	.loc 1 732 0
	leal	4(%r11), %ecx
	cmpl	%ecx, %r15d
	.loc 1 733 0
	movsd	%xmm0, 24(%rdx)
.LVL1422:
	.loc 1 732 0
	jle	.L664
	.loc 1 733 0
	movzbl	4(%rax), %ecx
	pxor	%xmm0, %xmm0
	cvtsi2sd	%ecx, %xmm0
	.loc 1 732 0
	leal	5(%r11), %ecx
	cmpl	%ecx, %r15d
	.loc 1 733 0
	movsd	%xmm0, 32(%rdx)
.LVL1423:
	.loc 1 732 0
	jle	.L664
	.loc 1 733 0
	movzbl	5(%rax), %ecx
	pxor	%xmm0, %xmm0
	cvtsi2sd	%ecx, %xmm0
	.loc 1 732 0
	leal	6(%r11), %ecx
	cmpl	%ecx, %r15d
	.loc 1 733 0
	movsd	%xmm0, 40(%rdx)
.LVL1424:
	.loc 1 732 0
	jle	.L664
	.loc 1 733 0
	movzbl	6(%rax), %ecx
	pxor	%xmm0, %xmm0
	cvtsi2sd	%ecx, %xmm0
	.loc 1 732 0
	leal	7(%r11), %ecx
	cmpl	%ecx, %r15d
	.loc 1 733 0
	movsd	%xmm0, 48(%rdx)
.LVL1425:
	.loc 1 732 0
	jle	.L664
	.loc 1 733 0
	movzbl	7(%rax), %ecx
	pxor	%xmm0, %xmm0
	cvtsi2sd	%ecx, %xmm0
	.loc 1 732 0
	leal	8(%r11), %ecx
	cmpl	%ecx, %r15d
	.loc 1 733 0
	movsd	%xmm0, 56(%rdx)
.LVL1426:
	.loc 1 732 0
	jle	.L664
	.loc 1 733 0
	movzbl	8(%rax), %ecx
	pxor	%xmm0, %xmm0
	cvtsi2sd	%ecx, %xmm0
	.loc 1 732 0
	leal	9(%r11), %ecx
	cmpl	%ecx, %r15d
	.loc 1 733 0
	movsd	%xmm0, 64(%rdx)
.LVL1427:
	.loc 1 732 0
	jle	.L664
	.loc 1 733 0
	movzbl	9(%rax), %ecx
	pxor	%xmm0, %xmm0
	cvtsi2sd	%ecx, %xmm0
	.loc 1 732 0
	leal	10(%r11), %ecx
	cmpl	%ecx, %r15d
	.loc 1 733 0
	movsd	%xmm0, 72(%rdx)
.LVL1428:
	.loc 1 732 0
	jle	.L664
	.loc 1 733 0
	movzbl	10(%rax), %ecx
	pxor	%xmm0, %xmm0
	cvtsi2sd	%ecx, %xmm0
	.loc 1 732 0
	leal	11(%r11), %ecx
	cmpl	%ecx, %r15d
	.loc 1 733 0
	movsd	%xmm0, 80(%rdx)
.LVL1429:
	.loc 1 732 0
	jle	.L664
	.loc 1 733 0
	movzbl	11(%rax), %ecx
	pxor	%xmm0, %xmm0
	cvtsi2sd	%ecx, %xmm0
	.loc 1 732 0
	leal	12(%r11), %ecx
	cmpl	%ecx, %r15d
	.loc 1 733 0
	movsd	%xmm0, 88(%rdx)
.LVL1430:
	.loc 1 732 0
	jle	.L664
	.loc 1 733 0
	movzbl	12(%rax), %ecx
	pxor	%xmm0, %xmm0
	cvtsi2sd	%ecx, %xmm0
	.loc 1 732 0
	leal	13(%r11), %ecx
	cmpl	%ecx, %r15d
	.loc 1 733 0
	movsd	%xmm0, 96(%rdx)
.LVL1431:
	.loc 1 732 0
	jle	.L664
	.loc 1 733 0
	movzbl	13(%rax), %ecx
	pxor	%xmm0, %xmm0
	cvtsi2sd	%ecx, %xmm0
	.loc 1 732 0
	leal	14(%r11), %ecx
	cmpl	%ecx, %r15d
	.loc 1 733 0
	movsd	%xmm0, 104(%rdx)
.LVL1432:
	.loc 1 732 0
	jle	.L664
	.loc 1 733 0
	movzbl	14(%rax), %eax
.LVL1433:
	pxor	%xmm0, %xmm0
	cvtsi2sd	%eax, %xmm0
	movsd	%xmm0, 112(%rdx)
.LVL1434:
.L664:
	movslq	%r13d, %r11
	addq	$1, %r11
.LBE9245:
.LBB9246:
	.loc 1 735 0 discriminator 3
	cmpl	%r15d, %ebp
	leaq	0(,%r11,8), %rcx
	leaq	(%rsi,%r11), %r9
.LVL1435:
	leaq	(%rdi,%rcx), %rdx
.LVL1436:
	jle	.L681
	leaq	-8(%rcx), %r8
	movslq	%r15d, %rax
	leaq	0(,%rax,8), %r12
	movl	%ebp, %eax
	movq	%r8, 96(%rsp)
	leaq	128(%rcx), %r8
	subl	%r13d, %eax
	movq	%r12, %r10
	subl	$1, %eax
	movq	%r8, 40(%rsp)
	subq	%r12, %r8
	negq	%r10
	cmpq	%r8, %rcx
	setge	48(%rsp)
	subq	%r12, %rcx
	movq	%rcx, 32(%rsp)
	movl	%eax, %ecx
	addq	%r11, %rcx
	leaq	(%rsi,%rcx), %r8
	leaq	(%rdi,%rcx,8), %rcx
	cmpq	%r8, %rdx
	setnb	%r8b
	cmpq	%rcx, %r9
	setnb	%cl
	orb	%cl, %r8b
	je	.L675
	movq	40(%rsp), %r8
	cmpq	%r8, 32(%rsp)
	setge	%cl
	orb	48(%rsp), %cl
	cmpl	$19, %eax
	seta	%r8b
	testb	%r8b, %cl
	je	.L675
	movq	32(%rsp), %rcx
	addq	%rdi, %rcx
	salq	$60, %rcx
	shrq	$63, %rcx
	cmpl	%eax, %ecx
	cmova	%eax, %ecx
	testl	%ecx, %ecx
	movl	%ecx, %r8d
	je	.L742
	.loc 1 736 0
	movzbl	(%r9), %ecx
	pxor	%xmm0, %xmm0
	cvtsi2sd	%ecx, %xmm0
	.loc 1 735 0
	leal	2(%r13), %ecx
	movl	%ecx, 32(%rsp)
.LVL1437:
	leaq	8(%rdx), %rcx
.LVL1438:
	movq	%rcx, 48(%rsp)
.LVL1439:
	leaq	1(%r9), %rcx
.LVL1440:
	movq	%rcx, 40(%rsp)
.LVL1441:
	.loc 1 736 0
	addsd	(%rdx,%r10), %xmm0
	movsd	%xmm0, (%rdx)
.LVL1442:
.L676:
	subl	%r8d, %eax
	movl	%r8d, %ecx
	movl	%eax, 80(%rsp)
	subl	$16, %eax
	leaq	(%rcx,%r11), %r8
	shrl	$4, %eax
	movq	%rcx, 88(%rsp)
	movq	88(%rsp), %r11
	addl	$1, %eax
	leaq	(%rdi,%r8,8), %rcx
	addq	%rsi, %r8
	movl	%eax, 72(%rsp)
	sall	$4, %eax
	movl	%eax, 64(%rsp)
	movq	96(%rsp), %rax
	subq	%r12, %rax
	leaq	8(%rax,%r11,8), %rax
	.loc 1 735 0
	xorl	%r11d, %r11d
	addq	%rdi, %rax
.LVL1443:
.L678:
	.loc 1 736 0 discriminator 2
	movdqu	(%r8), %xmm1
	addl	$1, %r11d
	subq	$-128, %rcx
	addq	$16, %r8
	subq	$-128, %rax
	pmovzxbw	%xmm1, %xmm0
	psrldq	$8, %xmm1
	pmovzxbw	%xmm1, %xmm2
	pmovzxwd	%xmm0, %xmm4
	psrldq	$8, %xmm0
	pmovzxwd	%xmm0, %xmm1
	movdqa	%xmm2, %xmm0
	pmovzxwd	%xmm2, %xmm3
	psrldq	$8, %xmm0
	pmovzxwd	%xmm0, %xmm0
	cvtdq2pd	%xmm1, %xmm6
	pshufd	$238, %xmm3, %xmm2
	addpd	-96(%rax), %xmm6
	cvtdq2pd	%xmm3, %xmm8
	cvtdq2pd	%xmm0, %xmm7
	pshufd	$238, %xmm4, %xmm5
	cvtdq2pd	%xmm4, %xmm3
	pshufd	$238, %xmm1, %xmm1
	addpd	-64(%rax), %xmm8
	pshufd	$238, %xmm0, %xmm0
	cvtdq2pd	%xmm2, %xmm2
	addpd	-32(%rax), %xmm7
	cvtdq2pd	%xmm5, %xmm5
	cvtdq2pd	%xmm1, %xmm1
	addpd	-112(%rax), %xmm5
	cvtdq2pd	%xmm0, %xmm0
	addpd	-80(%rax), %xmm1
	addpd	-48(%rax), %xmm2
	addpd	-16(%rax), %xmm0
	addpd	-128(%rax), %xmm3
	movups	%xmm5, -112(%rcx)
	movups	%xmm6, -96(%rcx)
	movups	%xmm1, -80(%rcx)
	movups	%xmm3, -128(%rcx)
	movups	%xmm8, -64(%rcx)
	movups	%xmm2, -48(%rcx)
	movups	%xmm7, -32(%rcx)
	movups	%xmm0, -16(%rcx)
	cmpl	%r11d, 72(%rsp)
	ja	.L678
	movl	64(%rsp), %r11d
	movq	48(%rsp), %rax
	movl	32(%rsp), %ecx
	movl	%r11d, %r8d
	leaq	(%rax,%r8,8), %rax
	addl	%r11d, %ecx
	addq	40(%rsp), %r8
	cmpl	80(%rsp), %r11d
	je	.L682
.LVL1444:
	.loc 1 736 0 is_stmt 0
	movzbl	(%r8), %r11d
	pxor	%xmm0, %xmm0
	cvtsi2sd	%r11d, %xmm0
	.loc 1 735 0 is_stmt 1
	leal	1(%rcx), %r11d
